
ctarget:     file format elf64-x86-64


Disassembly of section .init:

0000000000001000 <_init>:
    1000:	f3 0f 1e fa          	endbr64 
    1004:	48 83 ec 08          	sub    $0x8,%rsp
    1008:	48 8b 05 d9 5f 00 00 	mov    0x5fd9(%rip),%rax        # 6fe8 <__gmon_start__>
    100f:	48 85 c0             	test   %rax,%rax
    1012:	74 02                	je     1016 <_init+0x16>
    1014:	ff d0                	callq  *%rax
    1016:	48 83 c4 08          	add    $0x8,%rsp
    101a:	c3                   	retq   

Disassembly of section .plt:

0000000000001020 <.plt>:
    1020:	ff 35 9a 5e 00 00    	pushq  0x5e9a(%rip)        # 6ec0 <_GLOBAL_OFFSET_TABLE_+0x8>
    1026:	f2 ff 25 9b 5e 00 00 	bnd jmpq *0x5e9b(%rip)        # 6ec8 <_GLOBAL_OFFSET_TABLE_+0x10>
    102d:	0f 1f 00             	nopl   (%rax)
    1030:	f3 0f 1e fa          	endbr64 
    1034:	68 00 00 00 00       	pushq  $0x0
    1039:	f2 e9 e1 ff ff ff    	bnd jmpq 1020 <.plt>
    103f:	90                   	nop
    1040:	f3 0f 1e fa          	endbr64 
    1044:	68 01 00 00 00       	pushq  $0x1
    1049:	f2 e9 d1 ff ff ff    	bnd jmpq 1020 <.plt>
    104f:	90                   	nop
    1050:	f3 0f 1e fa          	endbr64 
    1054:	68 02 00 00 00       	pushq  $0x2
    1059:	f2 e9 c1 ff ff ff    	bnd jmpq 1020 <.plt>
    105f:	90                   	nop
    1060:	f3 0f 1e fa          	endbr64 
    1064:	68 03 00 00 00       	pushq  $0x3
    1069:	f2 e9 b1 ff ff ff    	bnd jmpq 1020 <.plt>
    106f:	90                   	nop
    1070:	f3 0f 1e fa          	endbr64 
    1074:	68 04 00 00 00       	pushq  $0x4
    1079:	f2 e9 a1 ff ff ff    	bnd jmpq 1020 <.plt>
    107f:	90                   	nop
    1080:	f3 0f 1e fa          	endbr64 
    1084:	68 05 00 00 00       	pushq  $0x5
    1089:	f2 e9 91 ff ff ff    	bnd jmpq 1020 <.plt>
    108f:	90                   	nop
    1090:	f3 0f 1e fa          	endbr64 
    1094:	68 06 00 00 00       	pushq  $0x6
    1099:	f2 e9 81 ff ff ff    	bnd jmpq 1020 <.plt>
    109f:	90                   	nop
    10a0:	f3 0f 1e fa          	endbr64 
    10a4:	68 07 00 00 00       	pushq  $0x7
    10a9:	f2 e9 71 ff ff ff    	bnd jmpq 1020 <.plt>
    10af:	90                   	nop
    10b0:	f3 0f 1e fa          	endbr64 
    10b4:	68 08 00 00 00       	pushq  $0x8
    10b9:	f2 e9 61 ff ff ff    	bnd jmpq 1020 <.plt>
    10bf:	90                   	nop
    10c0:	f3 0f 1e fa          	endbr64 
    10c4:	68 09 00 00 00       	pushq  $0x9
    10c9:	f2 e9 51 ff ff ff    	bnd jmpq 1020 <.plt>
    10cf:	90                   	nop
    10d0:	f3 0f 1e fa          	endbr64 
    10d4:	68 0a 00 00 00       	pushq  $0xa
    10d9:	f2 e9 41 ff ff ff    	bnd jmpq 1020 <.plt>
    10df:	90                   	nop
    10e0:	f3 0f 1e fa          	endbr64 
    10e4:	68 0b 00 00 00       	pushq  $0xb
    10e9:	f2 e9 31 ff ff ff    	bnd jmpq 1020 <.plt>
    10ef:	90                   	nop
    10f0:	f3 0f 1e fa          	endbr64 
    10f4:	68 0c 00 00 00       	pushq  $0xc
    10f9:	f2 e9 21 ff ff ff    	bnd jmpq 1020 <.plt>
    10ff:	90                   	nop
    1100:	f3 0f 1e fa          	endbr64 
    1104:	68 0d 00 00 00       	pushq  $0xd
    1109:	f2 e9 11 ff ff ff    	bnd jmpq 1020 <.plt>
    110f:	90                   	nop
    1110:	f3 0f 1e fa          	endbr64 
    1114:	68 0e 00 00 00       	pushq  $0xe
    1119:	f2 e9 01 ff ff ff    	bnd jmpq 1020 <.plt>
    111f:	90                   	nop
    1120:	f3 0f 1e fa          	endbr64 
    1124:	68 0f 00 00 00       	pushq  $0xf
    1129:	f2 e9 f1 fe ff ff    	bnd jmpq 1020 <.plt>
    112f:	90                   	nop
    1130:	f3 0f 1e fa          	endbr64 
    1134:	68 10 00 00 00       	pushq  $0x10
    1139:	f2 e9 e1 fe ff ff    	bnd jmpq 1020 <.plt>
    113f:	90                   	nop
    1140:	f3 0f 1e fa          	endbr64 
    1144:	68 11 00 00 00       	pushq  $0x11
    1149:	f2 e9 d1 fe ff ff    	bnd jmpq 1020 <.plt>
    114f:	90                   	nop
    1150:	f3 0f 1e fa          	endbr64 
    1154:	68 12 00 00 00       	pushq  $0x12
    1159:	f2 e9 c1 fe ff ff    	bnd jmpq 1020 <.plt>
    115f:	90                   	nop
    1160:	f3 0f 1e fa          	endbr64 
    1164:	68 13 00 00 00       	pushq  $0x13
    1169:	f2 e9 b1 fe ff ff    	bnd jmpq 1020 <.plt>
    116f:	90                   	nop
    1170:	f3 0f 1e fa          	endbr64 
    1174:	68 14 00 00 00       	pushq  $0x14
    1179:	f2 e9 a1 fe ff ff    	bnd jmpq 1020 <.plt>
    117f:	90                   	nop
    1180:	f3 0f 1e fa          	endbr64 
    1184:	68 15 00 00 00       	pushq  $0x15
    1189:	f2 e9 91 fe ff ff    	bnd jmpq 1020 <.plt>
    118f:	90                   	nop
    1190:	f3 0f 1e fa          	endbr64 
    1194:	68 16 00 00 00       	pushq  $0x16
    1199:	f2 e9 81 fe ff ff    	bnd jmpq 1020 <.plt>
    119f:	90                   	nop
    11a0:	f3 0f 1e fa          	endbr64 
    11a4:	68 17 00 00 00       	pushq  $0x17
    11a9:	f2 e9 71 fe ff ff    	bnd jmpq 1020 <.plt>
    11af:	90                   	nop
    11b0:	f3 0f 1e fa          	endbr64 
    11b4:	68 18 00 00 00       	pushq  $0x18
    11b9:	f2 e9 61 fe ff ff    	bnd jmpq 1020 <.plt>
    11bf:	90                   	nop
    11c0:	f3 0f 1e fa          	endbr64 
    11c4:	68 19 00 00 00       	pushq  $0x19
    11c9:	f2 e9 51 fe ff ff    	bnd jmpq 1020 <.plt>
    11cf:	90                   	nop
    11d0:	f3 0f 1e fa          	endbr64 
    11d4:	68 1a 00 00 00       	pushq  $0x1a
    11d9:	f2 e9 41 fe ff ff    	bnd jmpq 1020 <.plt>
    11df:	90                   	nop
    11e0:	f3 0f 1e fa          	endbr64 
    11e4:	68 1b 00 00 00       	pushq  $0x1b
    11e9:	f2 e9 31 fe ff ff    	bnd jmpq 1020 <.plt>
    11ef:	90                   	nop
    11f0:	f3 0f 1e fa          	endbr64 
    11f4:	68 1c 00 00 00       	pushq  $0x1c
    11f9:	f2 e9 21 fe ff ff    	bnd jmpq 1020 <.plt>
    11ff:	90                   	nop
    1200:	f3 0f 1e fa          	endbr64 
    1204:	68 1d 00 00 00       	pushq  $0x1d
    1209:	f2 e9 11 fe ff ff    	bnd jmpq 1020 <.plt>
    120f:	90                   	nop
    1210:	f3 0f 1e fa          	endbr64 
    1214:	68 1e 00 00 00       	pushq  $0x1e
    1219:	f2 e9 01 fe ff ff    	bnd jmpq 1020 <.plt>
    121f:	90                   	nop
    1220:	f3 0f 1e fa          	endbr64 
    1224:	68 1f 00 00 00       	pushq  $0x1f
    1229:	f2 e9 f1 fd ff ff    	bnd jmpq 1020 <.plt>
    122f:	90                   	nop
    1230:	f3 0f 1e fa          	endbr64 
    1234:	68 20 00 00 00       	pushq  $0x20
    1239:	f2 e9 e1 fd ff ff    	bnd jmpq 1020 <.plt>
    123f:	90                   	nop

Disassembly of section .plt.got:

0000000000001240 <__cxa_finalize@plt>:
    1240:	f3 0f 1e fa          	endbr64 
    1244:	f2 ff 25 ad 5d 00 00 	bnd jmpq *0x5dad(%rip)        # 6ff8 <__cxa_finalize@GLIBC_2.2.5>
    124b:	0f 1f 44 00 00       	nopl   0x0(%rax,%rax,1)

Disassembly of section .plt.sec:

0000000000001250 <strcasecmp@plt>:
    1250:	f3 0f 1e fa          	endbr64 
    1254:	f2 ff 25 75 5c 00 00 	bnd jmpq *0x5c75(%rip)        # 6ed0 <strcasecmp@GLIBC_2.2.5>
    125b:	0f 1f 44 00 00       	nopl   0x0(%rax,%rax,1)

0000000000001260 <__errno_location@plt>:
    1260:	f3 0f 1e fa          	endbr64 
    1264:	f2 ff 25 6d 5c 00 00 	bnd jmpq *0x5c6d(%rip)        # 6ed8 <__errno_location@GLIBC_2.2.5>
    126b:	0f 1f 44 00 00       	nopl   0x0(%rax,%rax,1)

0000000000001270 <srandom@plt>:
    1270:	f3 0f 1e fa          	endbr64 
    1274:	f2 ff 25 65 5c 00 00 	bnd jmpq *0x5c65(%rip)        # 6ee0 <srandom@GLIBC_2.2.5>
    127b:	0f 1f 44 00 00       	nopl   0x0(%rax,%rax,1)

0000000000001280 <strncmp@plt>:
    1280:	f3 0f 1e fa          	endbr64 
    1284:	f2 ff 25 5d 5c 00 00 	bnd jmpq *0x5c5d(%rip)        # 6ee8 <strncmp@GLIBC_2.2.5>
    128b:	0f 1f 44 00 00       	nopl   0x0(%rax,%rax,1)

0000000000001290 <strcpy@plt>:
    1290:	f3 0f 1e fa          	endbr64 
    1294:	f2 ff 25 55 5c 00 00 	bnd jmpq *0x5c55(%rip)        # 6ef0 <strcpy@GLIBC_2.2.5>
    129b:	0f 1f 44 00 00       	nopl   0x0(%rax,%rax,1)

00000000000012a0 <puts@plt>:
    12a0:	f3 0f 1e fa          	endbr64 
    12a4:	f2 ff 25 4d 5c 00 00 	bnd jmpq *0x5c4d(%rip)        # 6ef8 <puts@GLIBC_2.2.5>
    12ab:	0f 1f 44 00 00       	nopl   0x0(%rax,%rax,1)

00000000000012b0 <write@plt>:
    12b0:	f3 0f 1e fa          	endbr64 
    12b4:	f2 ff 25 45 5c 00 00 	bnd jmpq *0x5c45(%rip)        # 6f00 <write@GLIBC_2.2.5>
    12bb:	0f 1f 44 00 00       	nopl   0x0(%rax,%rax,1)

00000000000012c0 <__stack_chk_fail@plt>:
    12c0:	f3 0f 1e fa          	endbr64 
    12c4:	f2 ff 25 3d 5c 00 00 	bnd jmpq *0x5c3d(%rip)        # 6f08 <__stack_chk_fail@GLIBC_2.4>
    12cb:	0f 1f 44 00 00       	nopl   0x0(%rax,%rax,1)

00000000000012d0 <mmap@plt>:
    12d0:	f3 0f 1e fa          	endbr64 
    12d4:	f2 ff 25 35 5c 00 00 	bnd jmpq *0x5c35(%rip)        # 6f10 <mmap@GLIBC_2.2.5>
    12db:	0f 1f 44 00 00       	nopl   0x0(%rax,%rax,1)

00000000000012e0 <memset@plt>:
    12e0:	f3 0f 1e fa          	endbr64 
    12e4:	f2 ff 25 2d 5c 00 00 	bnd jmpq *0x5c2d(%rip)        # 6f18 <memset@GLIBC_2.2.5>
    12eb:	0f 1f 44 00 00       	nopl   0x0(%rax,%rax,1)

00000000000012f0 <alarm@plt>:
    12f0:	f3 0f 1e fa          	endbr64 
    12f4:	f2 ff 25 25 5c 00 00 	bnd jmpq *0x5c25(%rip)        # 6f20 <alarm@GLIBC_2.2.5>
    12fb:	0f 1f 44 00 00       	nopl   0x0(%rax,%rax,1)

0000000000001300 <close@plt>:
    1300:	f3 0f 1e fa          	endbr64 
    1304:	f2 ff 25 1d 5c 00 00 	bnd jmpq *0x5c1d(%rip)        # 6f28 <close@GLIBC_2.2.5>
    130b:	0f 1f 44 00 00       	nopl   0x0(%rax,%rax,1)

0000000000001310 <read@plt>:
    1310:	f3 0f 1e fa          	endbr64 
    1314:	f2 ff 25 15 5c 00 00 	bnd jmpq *0x5c15(%rip)        # 6f30 <read@GLIBC_2.2.5>
    131b:	0f 1f 44 00 00       	nopl   0x0(%rax,%rax,1)

0000000000001320 <signal@plt>:
    1320:	f3 0f 1e fa          	endbr64 
    1324:	f2 ff 25 0d 5c 00 00 	bnd jmpq *0x5c0d(%rip)        # 6f38 <signal@GLIBC_2.2.5>
    132b:	0f 1f 44 00 00       	nopl   0x0(%rax,%rax,1)

0000000000001330 <gethostbyname@plt>:
    1330:	f3 0f 1e fa          	endbr64 
    1334:	f2 ff 25 05 5c 00 00 	bnd jmpq *0x5c05(%rip)        # 6f40 <gethostbyname@GLIBC_2.2.5>
    133b:	0f 1f 44 00 00       	nopl   0x0(%rax,%rax,1)

0000000000001340 <__memmove_chk@plt>:
    1340:	f3 0f 1e fa          	endbr64 
    1344:	f2 ff 25 fd 5b 00 00 	bnd jmpq *0x5bfd(%rip)        # 6f48 <__memmove_chk@GLIBC_2.3.4>
    134b:	0f 1f 44 00 00       	nopl   0x0(%rax,%rax,1)

0000000000001350 <strtol@plt>:
    1350:	f3 0f 1e fa          	endbr64 
    1354:	f2 ff 25 f5 5b 00 00 	bnd jmpq *0x5bf5(%rip)        # 6f50 <strtol@GLIBC_2.2.5>
    135b:	0f 1f 44 00 00       	nopl   0x0(%rax,%rax,1)

0000000000001360 <memcpy@plt>:
    1360:	f3 0f 1e fa          	endbr64 
    1364:	f2 ff 25 ed 5b 00 00 	bnd jmpq *0x5bed(%rip)        # 6f58 <memcpy@GLIBC_2.14>
    136b:	0f 1f 44 00 00       	nopl   0x0(%rax,%rax,1)

0000000000001370 <time@plt>:
    1370:	f3 0f 1e fa          	endbr64 
    1374:	f2 ff 25 e5 5b 00 00 	bnd jmpq *0x5be5(%rip)        # 6f60 <time@GLIBC_2.2.5>
    137b:	0f 1f 44 00 00       	nopl   0x0(%rax,%rax,1)

0000000000001380 <random@plt>:
    1380:	f3 0f 1e fa          	endbr64 
    1384:	f2 ff 25 dd 5b 00 00 	bnd jmpq *0x5bdd(%rip)        # 6f68 <random@GLIBC_2.2.5>
    138b:	0f 1f 44 00 00       	nopl   0x0(%rax,%rax,1)

0000000000001390 <__isoc99_sscanf@plt>:
    1390:	f3 0f 1e fa          	endbr64 
    1394:	f2 ff 25 d5 5b 00 00 	bnd jmpq *0x5bd5(%rip)        # 6f70 <__isoc99_sscanf@GLIBC_2.7>
    139b:	0f 1f 44 00 00       	nopl   0x0(%rax,%rax,1)

00000000000013a0 <munmap@plt>:
    13a0:	f3 0f 1e fa          	endbr64 
    13a4:	f2 ff 25 cd 5b 00 00 	bnd jmpq *0x5bcd(%rip)        # 6f78 <munmap@GLIBC_2.2.5>
    13ab:	0f 1f 44 00 00       	nopl   0x0(%rax,%rax,1)

00000000000013b0 <__printf_chk@plt>:
    13b0:	f3 0f 1e fa          	endbr64 
    13b4:	f2 ff 25 c5 5b 00 00 	bnd jmpq *0x5bc5(%rip)        # 6f80 <__printf_chk@GLIBC_2.3.4>
    13bb:	0f 1f 44 00 00       	nopl   0x0(%rax,%rax,1)

00000000000013c0 <fopen@plt>:
    13c0:	f3 0f 1e fa          	endbr64 
    13c4:	f2 ff 25 bd 5b 00 00 	bnd jmpq *0x5bbd(%rip)        # 6f88 <fopen@GLIBC_2.2.5>
    13cb:	0f 1f 44 00 00       	nopl   0x0(%rax,%rax,1)

00000000000013d0 <getopt@plt>:
    13d0:	f3 0f 1e fa          	endbr64 
    13d4:	f2 ff 25 b5 5b 00 00 	bnd jmpq *0x5bb5(%rip)        # 6f90 <getopt@GLIBC_2.2.5>
    13db:	0f 1f 44 00 00       	nopl   0x0(%rax,%rax,1)

00000000000013e0 <strtoul@plt>:
    13e0:	f3 0f 1e fa          	endbr64 
    13e4:	f2 ff 25 ad 5b 00 00 	bnd jmpq *0x5bad(%rip)        # 6f98 <strtoul@GLIBC_2.2.5>
    13eb:	0f 1f 44 00 00       	nopl   0x0(%rax,%rax,1)

00000000000013f0 <gethostname@plt>:
    13f0:	f3 0f 1e fa          	endbr64 
    13f4:	f2 ff 25 a5 5b 00 00 	bnd jmpq *0x5ba5(%rip)        # 6fa0 <gethostname@GLIBC_2.2.5>
    13fb:	0f 1f 44 00 00       	nopl   0x0(%rax,%rax,1)

0000000000001400 <exit@plt>:
    1400:	f3 0f 1e fa          	endbr64 
    1404:	f2 ff 25 9d 5b 00 00 	bnd jmpq *0x5b9d(%rip)        # 6fa8 <exit@GLIBC_2.2.5>
    140b:	0f 1f 44 00 00       	nopl   0x0(%rax,%rax,1)

0000000000001410 <connect@plt>:
    1410:	f3 0f 1e fa          	endbr64 
    1414:	f2 ff 25 95 5b 00 00 	bnd jmpq *0x5b95(%rip)        # 6fb0 <connect@GLIBC_2.2.5>
    141b:	0f 1f 44 00 00       	nopl   0x0(%rax,%rax,1)

0000000000001420 <__fprintf_chk@plt>:
    1420:	f3 0f 1e fa          	endbr64 
    1424:	f2 ff 25 8d 5b 00 00 	bnd jmpq *0x5b8d(%rip)        # 6fb8 <__fprintf_chk@GLIBC_2.3.4>
    142b:	0f 1f 44 00 00       	nopl   0x0(%rax,%rax,1)

0000000000001430 <getc@plt>:
    1430:	f3 0f 1e fa          	endbr64 
    1434:	f2 ff 25 85 5b 00 00 	bnd jmpq *0x5b85(%rip)        # 6fc0 <getc@GLIBC_2.2.5>
    143b:	0f 1f 44 00 00       	nopl   0x0(%rax,%rax,1)

0000000000001440 <__sprintf_chk@plt>:
    1440:	f3 0f 1e fa          	endbr64 
    1444:	f2 ff 25 7d 5b 00 00 	bnd jmpq *0x5b7d(%rip)        # 6fc8 <__sprintf_chk@GLIBC_2.3.4>
    144b:	0f 1f 44 00 00       	nopl   0x0(%rax,%rax,1)

0000000000001450 <socket@plt>:
    1450:	f3 0f 1e fa          	endbr64 
    1454:	f2 ff 25 75 5b 00 00 	bnd jmpq *0x5b75(%rip)        # 6fd0 <socket@GLIBC_2.2.5>
    145b:	0f 1f 44 00 00       	nopl   0x0(%rax,%rax,1)

Disassembly of section .text:

0000000000001460 <_start>:
    1460:	f3 0f 1e fa          	endbr64 
    1464:	31 ed                	xor    %ebp,%ebp
    1466:	49 89 d1             	mov    %rdx,%r9
    1469:	5e                   	pop    %rsi
    146a:	48 89 e2             	mov    %rsp,%rdx
    146d:	48 83 e4 f0          	and    $0xfffffffffffffff0,%rsp
    1471:	50                   	push   %rax
    1472:	54                   	push   %rsp
    1473:	4c 8d 05 96 20 00 00 	lea    0x2096(%rip),%r8        # 3510 <__libc_csu_fini>
    147a:	48 8d 0d 1f 20 00 00 	lea    0x201f(%rip),%rcx        # 34a0 <__libc_csu_init>
    1481:	48 8d 3d 04 03 00 00 	lea    0x304(%rip),%rdi        # 178c <main>
    1488:	ff 15 52 5b 00 00    	callq  *0x5b52(%rip)        # 6fe0 <__libc_start_main@GLIBC_2.2.5>
    148e:	f4                   	hlt    
    148f:	90                   	nop

0000000000001490 <deregister_tm_clones>:
    1490:	48 8d 3d d9 5e 00 00 	lea    0x5ed9(%rip),%rdi        # 7370 <__TMC_END__>
    1497:	48 8d 05 d2 5e 00 00 	lea    0x5ed2(%rip),%rax        # 7370 <__TMC_END__>
    149e:	48 39 f8             	cmp    %rdi,%rax
    14a1:	74 15                	je     14b8 <deregister_tm_clones+0x28>
    14a3:	48 8b 05 2e 5b 00 00 	mov    0x5b2e(%rip),%rax        # 6fd8 <_ITM_deregisterTMCloneTable>
    14aa:	48 85 c0             	test   %rax,%rax
    14ad:	74 09                	je     14b8 <deregister_tm_clones+0x28>
    14af:	ff e0                	jmpq   *%rax
    14b1:	0f 1f 80 00 00 00 00 	nopl   0x0(%rax)
    14b8:	c3                   	retq   
    14b9:	0f 1f 80 00 00 00 00 	nopl   0x0(%rax)

00000000000014c0 <register_tm_clones>:
    14c0:	48 8d 3d a9 5e 00 00 	lea    0x5ea9(%rip),%rdi        # 7370 <__TMC_END__>
    14c7:	48 8d 35 a2 5e 00 00 	lea    0x5ea2(%rip),%rsi        # 7370 <__TMC_END__>
    14ce:	48 29 fe             	sub    %rdi,%rsi
    14d1:	48 89 f0             	mov    %rsi,%rax
    14d4:	48 c1 ee 3f          	shr    $0x3f,%rsi
    14d8:	48 c1 f8 03          	sar    $0x3,%rax
    14dc:	48 01 c6             	add    %rax,%rsi
    14df:	48 d1 fe             	sar    %rsi
    14e2:	74 14                	je     14f8 <register_tm_clones+0x38>
    14e4:	48 8b 05 05 5b 00 00 	mov    0x5b05(%rip),%rax        # 6ff0 <_ITM_registerTMCloneTable>
    14eb:	48 85 c0             	test   %rax,%rax
    14ee:	74 08                	je     14f8 <register_tm_clones+0x38>
    14f0:	ff e0                	jmpq   *%rax
    14f2:	66 0f 1f 44 00 00    	nopw   0x0(%rax,%rax,1)
    14f8:	c3                   	retq   
    14f9:	0f 1f 80 00 00 00 00 	nopl   0x0(%rax)

0000000000001500 <__do_global_dtors_aux>:
    1500:	f3 0f 1e fa          	endbr64 
    1504:	80 3d 9d 5e 00 00 00 	cmpb   $0x0,0x5e9d(%rip)        # 73a8 <completed.8060>
    150b:	75 2b                	jne    1538 <__do_global_dtors_aux+0x38>
    150d:	55                   	push   %rbp
    150e:	48 83 3d e2 5a 00 00 	cmpq   $0x0,0x5ae2(%rip)        # 6ff8 <__cxa_finalize@GLIBC_2.2.5>
    1515:	00 
    1516:	48 89 e5             	mov    %rsp,%rbp
    1519:	74 0c                	je     1527 <__do_global_dtors_aux+0x27>
    151b:	48 8b 3d e6 5a 00 00 	mov    0x5ae6(%rip),%rdi        # 7008 <__dso_handle>
    1522:	e8 19 fd ff ff       	callq  1240 <__cxa_finalize@plt>
    1527:	e8 64 ff ff ff       	callq  1490 <deregister_tm_clones>
    152c:	c6 05 75 5e 00 00 01 	movb   $0x1,0x5e75(%rip)        # 73a8 <completed.8060>
    1533:	5d                   	pop    %rbp
    1534:	c3                   	retq   
    1535:	0f 1f 00             	nopl   (%rax)
    1538:	c3                   	retq   
    1539:	0f 1f 80 00 00 00 00 	nopl   0x0(%rax)

0000000000001540 <frame_dummy>:
    1540:	f3 0f 1e fa          	endbr64 
    1544:	e9 77 ff ff ff       	jmpq   14c0 <register_tm_clones>

0000000000001549 <usage>:
    1549:	50                   	push   %rax
    154a:	58                   	pop    %rax
    154b:	48 83 ec 08          	sub    $0x8,%rsp
    154f:	48 89 fa             	mov    %rdi,%rdx
    1552:	83 3d 8f 5e 00 00 00 	cmpl   $0x0,0x5e8f(%rip)        # 73e8 <is_checker>
    1559:	74 50                	je     15ab <usage+0x62>
    155b:	48 8d 35 a6 2a 00 00 	lea    0x2aa6(%rip),%rsi        # 4008 <_IO_stdin_used+0x8>
    1562:	bf 01 00 00 00       	mov    $0x1,%edi
    1567:	b8 00 00 00 00       	mov    $0x0,%eax
    156c:	e8 3f fe ff ff       	callq  13b0 <__printf_chk@plt>
    1571:	48 8d 3d c8 2a 00 00 	lea    0x2ac8(%rip),%rdi        # 4040 <_IO_stdin_used+0x40>
    1578:	e8 23 fd ff ff       	callq  12a0 <puts@plt>
    157d:	48 8d 3d 34 2c 00 00 	lea    0x2c34(%rip),%rdi        # 41b8 <_IO_stdin_used+0x1b8>
    1584:	e8 17 fd ff ff       	callq  12a0 <puts@plt>
    1589:	48 8d 3d d8 2a 00 00 	lea    0x2ad8(%rip),%rdi        # 4068 <_IO_stdin_used+0x68>
    1590:	e8 0b fd ff ff       	callq  12a0 <puts@plt>
    1595:	48 8d 3d 36 2c 00 00 	lea    0x2c36(%rip),%rdi        # 41d2 <_IO_stdin_used+0x1d2>
    159c:	e8 ff fc ff ff       	callq  12a0 <puts@plt>
    15a1:	bf 00 00 00 00       	mov    $0x0,%edi
    15a6:	e8 55 fe ff ff       	callq  1400 <exit@plt>
    15ab:	48 8d 35 3c 2c 00 00 	lea    0x2c3c(%rip),%rsi        # 41ee <_IO_stdin_used+0x1ee>
    15b2:	bf 01 00 00 00       	mov    $0x1,%edi
    15b7:	b8 00 00 00 00       	mov    $0x0,%eax
    15bc:	e8 ef fd ff ff       	callq  13b0 <__printf_chk@plt>
    15c1:	48 8d 3d c8 2a 00 00 	lea    0x2ac8(%rip),%rdi        # 4090 <_IO_stdin_used+0x90>
    15c8:	e8 d3 fc ff ff       	callq  12a0 <puts@plt>
    15cd:	48 8d 3d e4 2a 00 00 	lea    0x2ae4(%rip),%rdi        # 40b8 <_IO_stdin_used+0xb8>
    15d4:	e8 c7 fc ff ff       	callq  12a0 <puts@plt>
    15d9:	48 8d 3d 2c 2c 00 00 	lea    0x2c2c(%rip),%rdi        # 420c <_IO_stdin_used+0x20c>
    15e0:	e8 bb fc ff ff       	callq  12a0 <puts@plt>
    15e5:	eb ba                	jmp    15a1 <usage+0x58>

00000000000015e7 <initialize_target>:
    15e7:	55                   	push   %rbp
    15e8:	53                   	push   %rbx
    15e9:	48 81 ec 00 10 00 00 	sub    $0x1000,%rsp
    15f0:	48 83 0c 24 00       	orq    $0x0,(%rsp)
    15f5:	48 81 ec 00 10 00 00 	sub    $0x1000,%rsp
    15fc:	48 83 0c 24 00       	orq    $0x0,(%rsp)
    1601:	48 81 ec 18 01 00 00 	sub    $0x118,%rsp
    1608:	89 f5                	mov    %esi,%ebp
    160a:	64 48 8b 04 25 28 00 	mov    %fs:0x28,%rax
    1611:	00 00 
    1613:	48 89 84 24 08 21 00 	mov    %rax,0x2108(%rsp)
    161a:	00 
    161b:	31 c0                	xor    %eax,%eax
    161d:	89 3d b5 5d 00 00    	mov    %edi,0x5db5(%rip)        # 73d8 <check_level>
    1623:	8b 3d e7 59 00 00    	mov    0x59e7(%rip),%edi        # 7010 <target_id>
    1629:	e8 3f 1e 00 00       	callq  346d <gencookie>
    162e:	89 c7                	mov    %eax,%edi
    1630:	89 05 ae 5d 00 00    	mov    %eax,0x5dae(%rip)        # 73e4 <cookie>
    1636:	e8 32 1e 00 00       	callq  346d <gencookie>
    163b:	89 05 9f 5d 00 00    	mov    %eax,0x5d9f(%rip)        # 73e0 <authkey>
    1641:	8b 05 c9 59 00 00    	mov    0x59c9(%rip),%eax        # 7010 <target_id>
    1647:	8d 78 01             	lea    0x1(%rax),%edi
    164a:	e8 21 fc ff ff       	callq  1270 <srandom@plt>
    164f:	e8 2c fd ff ff       	callq  1380 <random@plt>
    1654:	48 89 c7             	mov    %rax,%rdi
    1657:	e8 20 03 00 00       	callq  197c <scramble>
    165c:	89 c3                	mov    %eax,%ebx
    165e:	85 ed                	test   %ebp,%ebp
    1660:	75 54                	jne    16b6 <initialize_target+0xcf>
    1662:	b8 00 00 00 00       	mov    $0x0,%eax
    1667:	01 d8                	add    %ebx,%eax
    1669:	0f b7 c0             	movzwl %ax,%eax
    166c:	8d 04 c5 00 01 00 00 	lea    0x100(,%rax,8),%eax
    1673:	89 c0                	mov    %eax,%eax
    1675:	48 89 05 e4 5c 00 00 	mov    %rax,0x5ce4(%rip)        # 7360 <buf_offset>
    167c:	c6 05 85 69 00 00 63 	movb   $0x63,0x6985(%rip)        # 8008 <target_prefix>
    1683:	83 3d de 5c 00 00 00 	cmpl   $0x0,0x5cde(%rip)        # 7368 <notify>
    168a:	74 09                	je     1695 <initialize_target+0xae>
    168c:	83 3d 55 5d 00 00 00 	cmpl   $0x0,0x5d55(%rip)        # 73e8 <is_checker>
    1693:	74 3a                	je     16cf <initialize_target+0xe8>
    1695:	48 8b 84 24 08 21 00 	mov    0x2108(%rsp),%rax
    169c:	00 
    169d:	64 48 33 04 25 28 00 	xor    %fs:0x28,%rax
    16a4:	00 00 
    16a6:	0f 85 db 00 00 00    	jne    1787 <initialize_target+0x1a0>
    16ac:	48 81 c4 18 21 00 00 	add    $0x2118,%rsp
    16b3:	5b                   	pop    %rbx
    16b4:	5d                   	pop    %rbp
    16b5:	c3                   	retq   
    16b6:	bf 00 00 00 00       	mov    $0x0,%edi
    16bb:	e8 b0 fc ff ff       	callq  1370 <time@plt>
    16c0:	48 89 c7             	mov    %rax,%rdi
    16c3:	e8 a8 fb ff ff       	callq  1270 <srandom@plt>
    16c8:	e8 b3 fc ff ff       	callq  1380 <random@plt>
    16cd:	eb 98                	jmp    1667 <initialize_target+0x80>
    16cf:	48 89 e7             	mov    %rsp,%rdi
    16d2:	be 00 01 00 00       	mov    $0x100,%esi
    16d7:	e8 14 fd ff ff       	callq  13f0 <gethostname@plt>
    16dc:	89 c5                	mov    %eax,%ebp
    16de:	85 c0                	test   %eax,%eax
    16e0:	75 26                	jne    1708 <initialize_target+0x121>
    16e2:	89 c3                	mov    %eax,%ebx
    16e4:	48 63 c3             	movslq %ebx,%rax
    16e7:	48 8d 15 52 59 00 00 	lea    0x5952(%rip),%rdx        # 7040 <host_table>
    16ee:	48 8b 3c c2          	mov    (%rdx,%rax,8),%rdi
    16f2:	48 85 ff             	test   %rdi,%rdi
    16f5:	74 2c                	je     1723 <initialize_target+0x13c>
    16f7:	48 89 e6             	mov    %rsp,%rsi
    16fa:	e8 51 fb ff ff       	callq  1250 <strcasecmp@plt>
    16ff:	85 c0                	test   %eax,%eax
    1701:	74 1b                	je     171e <initialize_target+0x137>
    1703:	83 c3 01             	add    $0x1,%ebx
    1706:	eb dc                	jmp    16e4 <initialize_target+0xfd>
    1708:	48 8d 3d d9 29 00 00 	lea    0x29d9(%rip),%rdi        # 40e8 <_IO_stdin_used+0xe8>
    170f:	e8 8c fb ff ff       	callq  12a0 <puts@plt>
    1714:	bf 08 00 00 00       	mov    $0x8,%edi
    1719:	e8 e2 fc ff ff       	callq  1400 <exit@plt>
    171e:	bd 01 00 00 00       	mov    $0x1,%ebp
    1723:	85 ed                	test   %ebp,%ebp
    1725:	74 3d                	je     1764 <initialize_target+0x17d>
    1727:	48 8d bc 24 00 01 00 	lea    0x100(%rsp),%rdi
    172e:	00 
    172f:	e8 7e 1a 00 00       	callq  31b2 <init_driver>
    1734:	85 c0                	test   %eax,%eax
    1736:	0f 89 59 ff ff ff    	jns    1695 <initialize_target+0xae>
    173c:	48 8d 94 24 00 01 00 	lea    0x100(%rsp),%rdx
    1743:	00 
    1744:	48 8d 35 15 2a 00 00 	lea    0x2a15(%rip),%rsi        # 4160 <_IO_stdin_used+0x160>
    174b:	bf 01 00 00 00       	mov    $0x1,%edi
    1750:	b8 00 00 00 00       	mov    $0x0,%eax
    1755:	e8 56 fc ff ff       	callq  13b0 <__printf_chk@plt>
    175a:	bf 08 00 00 00       	mov    $0x8,%edi
    175f:	e8 9c fc ff ff       	callq  1400 <exit@plt>
    1764:	48 89 e2             	mov    %rsp,%rdx
    1767:	48 8d 35 b2 29 00 00 	lea    0x29b2(%rip),%rsi        # 4120 <_IO_stdin_used+0x120>
    176e:	bf 01 00 00 00       	mov    $0x1,%edi
    1773:	b8 00 00 00 00       	mov    $0x0,%eax
    1778:	e8 33 fc ff ff       	callq  13b0 <__printf_chk@plt>
    177d:	bf 08 00 00 00       	mov    $0x8,%edi
    1782:	e8 79 fc ff ff       	callq  1400 <exit@plt>
    1787:	e8 34 fb ff ff       	callq  12c0 <__stack_chk_fail@plt>

000000000000178c <main>:
    178c:	f3 0f 1e fa          	endbr64 
    1790:	41 56                	push   %r14
    1792:	41 55                	push   %r13
    1794:	41 54                	push   %r12
    1796:	55                   	push   %rbp
    1797:	53                   	push   %rbx
    1798:	89 fd                	mov    %edi,%ebp
    179a:	48 89 f3             	mov    %rsi,%rbx
    179d:	48 8d 35 b1 0c 00 00 	lea    0xcb1(%rip),%rsi        # 2455 <seghandler>
    17a4:	bf 0b 00 00 00       	mov    $0xb,%edi
    17a9:	e8 72 fb ff ff       	callq  1320 <signal@plt>
    17ae:	48 8d 35 46 0c 00 00 	lea    0xc46(%rip),%rsi        # 23fb <bushandler>
    17b5:	bf 07 00 00 00       	mov    $0x7,%edi
    17ba:	e8 61 fb ff ff       	callq  1320 <signal@plt>
    17bf:	48 8d 35 e9 0c 00 00 	lea    0xce9(%rip),%rsi        # 24af <illegalhandler>
    17c6:	bf 04 00 00 00       	mov    $0x4,%edi
    17cb:	e8 50 fb ff ff       	callq  1320 <signal@plt>
    17d0:	83 3d 11 5c 00 00 00 	cmpl   $0x0,0x5c11(%rip)        # 73e8 <is_checker>
    17d7:	75 26                	jne    17ff <main+0x73>
    17d9:	4c 8d 25 4d 2a 00 00 	lea    0x2a4d(%rip),%r12        # 422d <_IO_stdin_used+0x22d>
    17e0:	48 8b 05 99 5b 00 00 	mov    0x5b99(%rip),%rax        # 7380 <stdin@@GLIBC_2.2.5>
    17e7:	48 89 05 e2 5b 00 00 	mov    %rax,0x5be2(%rip)        # 73d0 <infile>
    17ee:	41 bd 00 00 00 00    	mov    $0x0,%r13d
    17f4:	41 be 00 00 00 00    	mov    $0x0,%r14d
    17fa:	e9 8d 00 00 00       	jmpq   188c <main+0x100>
    17ff:	48 8d 35 03 0d 00 00 	lea    0xd03(%rip),%rsi        # 2509 <sigalrmhandler>
    1806:	bf 0e 00 00 00       	mov    $0xe,%edi
    180b:	e8 10 fb ff ff       	callq  1320 <signal@plt>
    1810:	bf 05 00 00 00       	mov    $0x5,%edi
    1815:	e8 d6 fa ff ff       	callq  12f0 <alarm@plt>
    181a:	4c 8d 25 04 2a 00 00 	lea    0x2a04(%rip),%r12        # 4225 <_IO_stdin_used+0x225>
    1821:	eb bd                	jmp    17e0 <main+0x54>
    1823:	48 8b 3b             	mov    (%rbx),%rdi
    1826:	e8 1e fd ff ff       	callq  1549 <usage>
    182b:	48 8d 35 53 2c 00 00 	lea    0x2c53(%rip),%rsi        # 4485 <_IO_stdin_used+0x485>
    1832:	48 8b 3d 4f 5b 00 00 	mov    0x5b4f(%rip),%rdi        # 7388 <optarg@@GLIBC_2.2.5>
    1839:	e8 82 fb ff ff       	callq  13c0 <fopen@plt>
    183e:	48 89 05 8b 5b 00 00 	mov    %rax,0x5b8b(%rip)        # 73d0 <infile>
    1845:	48 85 c0             	test   %rax,%rax
    1848:	75 42                	jne    188c <main+0x100>
    184a:	48 8b 0d 37 5b 00 00 	mov    0x5b37(%rip),%rcx        # 7388 <optarg@@GLIBC_2.2.5>
    1851:	48 8d 15 da 29 00 00 	lea    0x29da(%rip),%rdx        # 4232 <_IO_stdin_used+0x232>
    1858:	be 01 00 00 00       	mov    $0x1,%esi
    185d:	48 8b 3d 3c 5b 00 00 	mov    0x5b3c(%rip),%rdi        # 73a0 <stderr@@GLIBC_2.2.5>
    1864:	e8 b7 fb ff ff       	callq  1420 <__fprintf_chk@plt>
    1869:	b8 01 00 00 00       	mov    $0x1,%eax
    186e:	e9 db 00 00 00       	jmpq   194e <main+0x1c2>
    1873:	ba 10 00 00 00       	mov    $0x10,%edx
    1878:	be 00 00 00 00       	mov    $0x0,%esi
    187d:	48 8b 3d 04 5b 00 00 	mov    0x5b04(%rip),%rdi        # 7388 <optarg@@GLIBC_2.2.5>
    1884:	e8 57 fb ff ff       	callq  13e0 <strtoul@plt>
    1889:	41 89 c6             	mov    %eax,%r14d
    188c:	4c 89 e2             	mov    %r12,%rdx
    188f:	48 89 de             	mov    %rbx,%rsi
    1892:	89 ef                	mov    %ebp,%edi
    1894:	e8 37 fb ff ff       	callq  13d0 <getopt@plt>
    1899:	3c ff                	cmp    $0xff,%al
    189b:	74 65                	je     1902 <main+0x176>
    189d:	0f be c8             	movsbl %al,%ecx
    18a0:	83 e8 61             	sub    $0x61,%eax
    18a3:	3c 10                	cmp    $0x10,%al
    18a5:	77 3b                	ja     18e2 <main+0x156>
    18a7:	0f b6 c0             	movzbl %al,%eax
    18aa:	48 8d 15 bf 29 00 00 	lea    0x29bf(%rip),%rdx        # 4270 <_IO_stdin_used+0x270>
    18b1:	48 63 04 82          	movslq (%rdx,%rax,4),%rax
    18b5:	48 01 d0             	add    %rdx,%rax
    18b8:	3e ff e0             	notrack jmpq *%rax
    18bb:	ba 0a 00 00 00       	mov    $0xa,%edx
    18c0:	be 00 00 00 00       	mov    $0x0,%esi
    18c5:	48 8b 3d bc 5a 00 00 	mov    0x5abc(%rip),%rdi        # 7388 <optarg@@GLIBC_2.2.5>
    18cc:	e8 7f fa ff ff       	callq  1350 <strtol@plt>
    18d1:	41 89 c5             	mov    %eax,%r13d
    18d4:	eb b6                	jmp    188c <main+0x100>
    18d6:	c7 05 88 5a 00 00 00 	movl   $0x0,0x5a88(%rip)        # 7368 <notify>
    18dd:	00 00 00 
    18e0:	eb aa                	jmp    188c <main+0x100>
    18e2:	89 ca                	mov    %ecx,%edx
    18e4:	48 8d 35 64 29 00 00 	lea    0x2964(%rip),%rsi        # 424f <_IO_stdin_used+0x24f>
    18eb:	bf 01 00 00 00       	mov    $0x1,%edi
    18f0:	b8 00 00 00 00       	mov    $0x0,%eax
    18f5:	e8 b6 fa ff ff       	callq  13b0 <__printf_chk@plt>
    18fa:	48 8b 3b             	mov    (%rbx),%rdi
    18fd:	e8 47 fc ff ff       	callq  1549 <usage>
    1902:	be 00 00 00 00       	mov    $0x0,%esi
    1907:	44 89 ef             	mov    %r13d,%edi
    190a:	e8 d8 fc ff ff       	callq  15e7 <initialize_target>
    190f:	83 3d d2 5a 00 00 00 	cmpl   $0x0,0x5ad2(%rip)        # 73e8 <is_checker>
    1916:	74 09                	je     1921 <main+0x195>
    1918:	44 39 35 c1 5a 00 00 	cmp    %r14d,0x5ac1(%rip)        # 73e0 <authkey>
    191f:	75 36                	jne    1957 <main+0x1cb>
    1921:	8b 15 bd 5a 00 00    	mov    0x5abd(%rip),%edx        # 73e4 <cookie>
    1927:	48 8d 35 34 29 00 00 	lea    0x2934(%rip),%rsi        # 4262 <_IO_stdin_used+0x262>
    192e:	bf 01 00 00 00       	mov    $0x1,%edi
    1933:	b8 00 00 00 00       	mov    $0x0,%eax
    1938:	e8 73 fa ff ff       	callq  13b0 <__printf_chk@plt>
    193d:	48 8b 3d 1c 5a 00 00 	mov    0x5a1c(%rip),%rdi        # 7360 <buf_offset>
    1944:	e8 12 0d 00 00       	callq  265b <stable_launch>
    1949:	b8 00 00 00 00       	mov    $0x0,%eax
    194e:	5b                   	pop    %rbx
    194f:	5d                   	pop    %rbp
    1950:	41 5c                	pop    %r12
    1952:	41 5d                	pop    %r13
    1954:	41 5e                	pop    %r14
    1956:	c3                   	retq   
    1957:	44 89 f2             	mov    %r14d,%edx
    195a:	48 8d 35 27 28 00 00 	lea    0x2827(%rip),%rsi        # 4188 <_IO_stdin_used+0x188>
    1961:	bf 01 00 00 00       	mov    $0x1,%edi
    1966:	b8 00 00 00 00       	mov    $0x0,%eax
    196b:	e8 40 fa ff ff       	callq  13b0 <__printf_chk@plt>
    1970:	b8 00 00 00 00       	mov    $0x0,%eax
    1975:	e8 d0 06 00 00       	callq  204a <check_fail>
    197a:	eb a5                	jmp    1921 <main+0x195>

000000000000197c <scramble>:
    197c:	f3 0f 1e fa          	endbr64 
    1980:	48 83 ec 38          	sub    $0x38,%rsp
    1984:	64 48 8b 04 25 28 00 	mov    %fs:0x28,%rax
    198b:	00 00 
    198d:	48 89 44 24 28       	mov    %rax,0x28(%rsp)
    1992:	31 c0                	xor    %eax,%eax
    1994:	83 f8 09             	cmp    $0x9,%eax
    1997:	77 12                	ja     19ab <scramble+0x2f>
    1999:	69 d0 33 52 00 00    	imul   $0x5233,%eax,%edx
    199f:	01 fa                	add    %edi,%edx
    19a1:	89 c1                	mov    %eax,%ecx
    19a3:	89 14 8c             	mov    %edx,(%rsp,%rcx,4)
    19a6:	83 c0 01             	add    $0x1,%eax
    19a9:	eb e9                	jmp    1994 <scramble+0x18>
    19ab:	8b 44 24 18          	mov    0x18(%rsp),%eax
    19af:	69 c0 42 99 00 00    	imul   $0x9942,%eax,%eax
    19b5:	89 44 24 18          	mov    %eax,0x18(%rsp)
    19b9:	8b 44 24 1c          	mov    0x1c(%rsp),%eax
    19bd:	69 c0 f3 90 00 00    	imul   $0x90f3,%eax,%eax
    19c3:	89 44 24 1c          	mov    %eax,0x1c(%rsp)
    19c7:	8b 44 24 0c          	mov    0xc(%rsp),%eax
    19cb:	69 c0 99 1a 00 00    	imul   $0x1a99,%eax,%eax
    19d1:	89 44 24 0c          	mov    %eax,0xc(%rsp)
    19d5:	8b 44 24 14          	mov    0x14(%rsp),%eax
    19d9:	69 c0 24 f9 00 00    	imul   $0xf924,%eax,%eax
    19df:	89 44 24 14          	mov    %eax,0x14(%rsp)
    19e3:	8b 44 24 10          	mov    0x10(%rsp),%eax
    19e7:	69 c0 40 33 00 00    	imul   $0x3340,%eax,%eax
    19ed:	89 44 24 10          	mov    %eax,0x10(%rsp)
    19f1:	8b 44 24 10          	mov    0x10(%rsp),%eax
    19f5:	69 c0 ba 8a 00 00    	imul   $0x8aba,%eax,%eax
    19fb:	89 44 24 10          	mov    %eax,0x10(%rsp)
    19ff:	8b 44 24 10          	mov    0x10(%rsp),%eax
    1a03:	69 c0 6b ba 00 00    	imul   $0xba6b,%eax,%eax
    1a09:	89 44 24 10          	mov    %eax,0x10(%rsp)
    1a0d:	8b 44 24 04          	mov    0x4(%rsp),%eax
    1a11:	69 c0 76 a1 00 00    	imul   $0xa176,%eax,%eax
    1a17:	89 44 24 04          	mov    %eax,0x4(%rsp)
    1a1b:	8b 44 24 24          	mov    0x24(%rsp),%eax
    1a1f:	69 c0 e9 53 00 00    	imul   $0x53e9,%eax,%eax
    1a25:	89 44 24 24          	mov    %eax,0x24(%rsp)
    1a29:	8b 44 24 10          	mov    0x10(%rsp),%eax
    1a2d:	69 c0 65 12 00 00    	imul   $0x1265,%eax,%eax
    1a33:	89 44 24 10          	mov    %eax,0x10(%rsp)
    1a37:	8b 44 24 24          	mov    0x24(%rsp),%eax
    1a3b:	69 c0 60 36 00 00    	imul   $0x3660,%eax,%eax
    1a41:	89 44 24 24          	mov    %eax,0x24(%rsp)
    1a45:	8b 44 24 20          	mov    0x20(%rsp),%eax
    1a49:	69 c0 45 81 00 00    	imul   $0x8145,%eax,%eax
    1a4f:	89 44 24 20          	mov    %eax,0x20(%rsp)
    1a53:	8b 44 24 08          	mov    0x8(%rsp),%eax
    1a57:	69 c0 62 ba 00 00    	imul   $0xba62,%eax,%eax
    1a5d:	89 44 24 08          	mov    %eax,0x8(%rsp)
    1a61:	8b 04 24             	mov    (%rsp),%eax
    1a64:	69 c0 60 d4 00 00    	imul   $0xd460,%eax,%eax
    1a6a:	89 04 24             	mov    %eax,(%rsp)
    1a6d:	8b 44 24 0c          	mov    0xc(%rsp),%eax
    1a71:	69 c0 0e 80 00 00    	imul   $0x800e,%eax,%eax
    1a77:	89 44 24 0c          	mov    %eax,0xc(%rsp)
    1a7b:	8b 44 24 18          	mov    0x18(%rsp),%eax
    1a7f:	69 c0 d8 06 00 00    	imul   $0x6d8,%eax,%eax
    1a85:	89 44 24 18          	mov    %eax,0x18(%rsp)
    1a89:	8b 44 24 24          	mov    0x24(%rsp),%eax
    1a8d:	69 c0 5b a6 00 00    	imul   $0xa65b,%eax,%eax
    1a93:	89 44 24 24          	mov    %eax,0x24(%rsp)
    1a97:	8b 44 24 10          	mov    0x10(%rsp),%eax
    1a9b:	69 c0 6a dd 00 00    	imul   $0xdd6a,%eax,%eax
    1aa1:	89 44 24 10          	mov    %eax,0x10(%rsp)
    1aa5:	8b 44 24 08          	mov    0x8(%rsp),%eax
    1aa9:	69 c0 e7 6d 00 00    	imul   $0x6de7,%eax,%eax
    1aaf:	89 44 24 08          	mov    %eax,0x8(%rsp)
    1ab3:	8b 44 24 24          	mov    0x24(%rsp),%eax
    1ab7:	69 c0 6d da 00 00    	imul   $0xda6d,%eax,%eax
    1abd:	89 44 24 24          	mov    %eax,0x24(%rsp)
    1ac1:	8b 44 24 14          	mov    0x14(%rsp),%eax
    1ac5:	69 c0 00 39 00 00    	imul   $0x3900,%eax,%eax
    1acb:	89 44 24 14          	mov    %eax,0x14(%rsp)
    1acf:	8b 44 24 04          	mov    0x4(%rsp),%eax
    1ad3:	69 c0 34 0c 00 00    	imul   $0xc34,%eax,%eax
    1ad9:	89 44 24 04          	mov    %eax,0x4(%rsp)
    1add:	8b 44 24 20          	mov    0x20(%rsp),%eax
    1ae1:	69 c0 d6 b7 00 00    	imul   $0xb7d6,%eax,%eax
    1ae7:	89 44 24 20          	mov    %eax,0x20(%rsp)
    1aeb:	8b 44 24 0c          	mov    0xc(%rsp),%eax
    1aef:	69 c0 d8 cd 00 00    	imul   $0xcdd8,%eax,%eax
    1af5:	89 44 24 0c          	mov    %eax,0xc(%rsp)
    1af9:	8b 44 24 24          	mov    0x24(%rsp),%eax
    1afd:	69 c0 bf ab 00 00    	imul   $0xabbf,%eax,%eax
    1b03:	89 44 24 24          	mov    %eax,0x24(%rsp)
    1b07:	8b 44 24 1c          	mov    0x1c(%rsp),%eax
    1b0b:	69 c0 5b 77 00 00    	imul   $0x775b,%eax,%eax
    1b11:	89 44 24 1c          	mov    %eax,0x1c(%rsp)
    1b15:	8b 44 24 08          	mov    0x8(%rsp),%eax
    1b19:	69 c0 75 67 00 00    	imul   $0x6775,%eax,%eax
    1b1f:	89 44 24 08          	mov    %eax,0x8(%rsp)
    1b23:	8b 44 24 14          	mov    0x14(%rsp),%eax
    1b27:	69 c0 de ed 00 00    	imul   $0xedde,%eax,%eax
    1b2d:	89 44 24 14          	mov    %eax,0x14(%rsp)
    1b31:	8b 44 24 18          	mov    0x18(%rsp),%eax
    1b35:	69 c0 9a d8 00 00    	imul   $0xd89a,%eax,%eax
    1b3b:	89 44 24 18          	mov    %eax,0x18(%rsp)
    1b3f:	8b 44 24 1c          	mov    0x1c(%rsp),%eax
    1b43:	69 c0 7c d6 00 00    	imul   $0xd67c,%eax,%eax
    1b49:	89 44 24 1c          	mov    %eax,0x1c(%rsp)
    1b4d:	8b 44 24 08          	mov    0x8(%rsp),%eax
    1b51:	69 c0 7b 14 00 00    	imul   $0x147b,%eax,%eax
    1b57:	89 44 24 08          	mov    %eax,0x8(%rsp)
    1b5b:	8b 44 24 04          	mov    0x4(%rsp),%eax
    1b5f:	69 c0 f9 71 00 00    	imul   $0x71f9,%eax,%eax
    1b65:	89 44 24 04          	mov    %eax,0x4(%rsp)
    1b69:	8b 44 24 24          	mov    0x24(%rsp),%eax
    1b6d:	69 c0 1f 75 00 00    	imul   $0x751f,%eax,%eax
    1b73:	89 44 24 24          	mov    %eax,0x24(%rsp)
    1b77:	8b 44 24 18          	mov    0x18(%rsp),%eax
    1b7b:	69 c0 cb 7b 00 00    	imul   $0x7bcb,%eax,%eax
    1b81:	89 44 24 18          	mov    %eax,0x18(%rsp)
    1b85:	8b 44 24 24          	mov    0x24(%rsp),%eax
    1b89:	69 c0 f1 25 00 00    	imul   $0x25f1,%eax,%eax
    1b8f:	89 44 24 24          	mov    %eax,0x24(%rsp)
    1b93:	8b 04 24             	mov    (%rsp),%eax
    1b96:	69 c0 2e 84 00 00    	imul   $0x842e,%eax,%eax
    1b9c:	89 04 24             	mov    %eax,(%rsp)
    1b9f:	8b 44 24 08          	mov    0x8(%rsp),%eax
    1ba3:	69 c0 60 bb 00 00    	imul   $0xbb60,%eax,%eax
    1ba9:	89 44 24 08          	mov    %eax,0x8(%rsp)
    1bad:	8b 44 24 20          	mov    0x20(%rsp),%eax
    1bb1:	69 c0 5d 52 00 00    	imul   $0x525d,%eax,%eax
    1bb7:	89 44 24 20          	mov    %eax,0x20(%rsp)
    1bbb:	8b 44 24 18          	mov    0x18(%rsp),%eax
    1bbf:	69 c0 0c 3e 00 00    	imul   $0x3e0c,%eax,%eax
    1bc5:	89 44 24 18          	mov    %eax,0x18(%rsp)
    1bc9:	8b 44 24 24          	mov    0x24(%rsp),%eax
    1bcd:	69 c0 f5 7e 00 00    	imul   $0x7ef5,%eax,%eax
    1bd3:	89 44 24 24          	mov    %eax,0x24(%rsp)
    1bd7:	8b 44 24 08          	mov    0x8(%rsp),%eax
    1bdb:	6b c0 73             	imul   $0x73,%eax,%eax
    1bde:	89 44 24 08          	mov    %eax,0x8(%rsp)
    1be2:	8b 04 24             	mov    (%rsp),%eax
    1be5:	69 c0 eb cb 00 00    	imul   $0xcbeb,%eax,%eax
    1beb:	89 04 24             	mov    %eax,(%rsp)
    1bee:	8b 44 24 14          	mov    0x14(%rsp),%eax
    1bf2:	69 c0 f1 ee 00 00    	imul   $0xeef1,%eax,%eax
    1bf8:	89 44 24 14          	mov    %eax,0x14(%rsp)
    1bfc:	8b 44 24 04          	mov    0x4(%rsp),%eax
    1c00:	69 c0 c0 89 00 00    	imul   $0x89c0,%eax,%eax
    1c06:	89 44 24 04          	mov    %eax,0x4(%rsp)
    1c0a:	8b 44 24 10          	mov    0x10(%rsp),%eax
    1c0e:	69 c0 07 7c 00 00    	imul   $0x7c07,%eax,%eax
    1c14:	89 44 24 10          	mov    %eax,0x10(%rsp)
    1c18:	8b 44 24 10          	mov    0x10(%rsp),%eax
    1c1c:	69 c0 34 20 00 00    	imul   $0x2034,%eax,%eax
    1c22:	89 44 24 10          	mov    %eax,0x10(%rsp)
    1c26:	8b 44 24 18          	mov    0x18(%rsp),%eax
    1c2a:	69 c0 90 3d 00 00    	imul   $0x3d90,%eax,%eax
    1c30:	89 44 24 18          	mov    %eax,0x18(%rsp)
    1c34:	8b 44 24 24          	mov    0x24(%rsp),%eax
    1c38:	69 c0 59 4b 00 00    	imul   $0x4b59,%eax,%eax
    1c3e:	89 44 24 24          	mov    %eax,0x24(%rsp)
    1c42:	8b 44 24 14          	mov    0x14(%rsp),%eax
    1c46:	69 c0 91 e1 00 00    	imul   $0xe191,%eax,%eax
    1c4c:	89 44 24 14          	mov    %eax,0x14(%rsp)
    1c50:	8b 44 24 24          	mov    0x24(%rsp),%eax
    1c54:	69 c0 b6 95 00 00    	imul   $0x95b6,%eax,%eax
    1c5a:	89 44 24 24          	mov    %eax,0x24(%rsp)
    1c5e:	8b 44 24 10          	mov    0x10(%rsp),%eax
    1c62:	69 c0 5e 1d 00 00    	imul   $0x1d5e,%eax,%eax
    1c68:	89 44 24 10          	mov    %eax,0x10(%rsp)
    1c6c:	8b 44 24 08          	mov    0x8(%rsp),%eax
    1c70:	69 c0 75 66 00 00    	imul   $0x6675,%eax,%eax
    1c76:	89 44 24 08          	mov    %eax,0x8(%rsp)
    1c7a:	8b 44 24 10          	mov    0x10(%rsp),%eax
    1c7e:	69 c0 46 aa 00 00    	imul   $0xaa46,%eax,%eax
    1c84:	89 44 24 10          	mov    %eax,0x10(%rsp)
    1c88:	8b 44 24 20          	mov    0x20(%rsp),%eax
    1c8c:	69 c0 f5 4b 00 00    	imul   $0x4bf5,%eax,%eax
    1c92:	89 44 24 20          	mov    %eax,0x20(%rsp)
    1c96:	8b 44 24 18          	mov    0x18(%rsp),%eax
    1c9a:	69 c0 08 d9 00 00    	imul   $0xd908,%eax,%eax
    1ca0:	89 44 24 18          	mov    %eax,0x18(%rsp)
    1ca4:	8b 44 24 08          	mov    0x8(%rsp),%eax
    1ca8:	69 c0 1d d2 00 00    	imul   $0xd21d,%eax,%eax
    1cae:	89 44 24 08          	mov    %eax,0x8(%rsp)
    1cb2:	8b 44 24 18          	mov    0x18(%rsp),%eax
    1cb6:	69 c0 3b c1 00 00    	imul   $0xc13b,%eax,%eax
    1cbc:	89 44 24 18          	mov    %eax,0x18(%rsp)
    1cc0:	8b 44 24 18          	mov    0x18(%rsp),%eax
    1cc4:	69 c0 64 41 00 00    	imul   $0x4164,%eax,%eax
    1cca:	89 44 24 18          	mov    %eax,0x18(%rsp)
    1cce:	8b 04 24             	mov    (%rsp),%eax
    1cd1:	69 c0 d1 57 00 00    	imul   $0x57d1,%eax,%eax
    1cd7:	89 04 24             	mov    %eax,(%rsp)
    1cda:	8b 44 24 10          	mov    0x10(%rsp),%eax
    1cde:	69 c0 b7 77 00 00    	imul   $0x77b7,%eax,%eax
    1ce4:	89 44 24 10          	mov    %eax,0x10(%rsp)
    1ce8:	8b 04 24             	mov    (%rsp),%eax
    1ceb:	69 c0 60 2b 00 00    	imul   $0x2b60,%eax,%eax
    1cf1:	89 04 24             	mov    %eax,(%rsp)
    1cf4:	8b 44 24 10          	mov    0x10(%rsp),%eax
    1cf8:	69 c0 5b 64 00 00    	imul   $0x645b,%eax,%eax
    1cfe:	89 44 24 10          	mov    %eax,0x10(%rsp)
    1d02:	8b 44 24 20          	mov    0x20(%rsp),%eax
    1d06:	69 c0 1a 2a 00 00    	imul   $0x2a1a,%eax,%eax
    1d0c:	89 44 24 20          	mov    %eax,0x20(%rsp)
    1d10:	8b 44 24 0c          	mov    0xc(%rsp),%eax
    1d14:	69 c0 a0 1b 00 00    	imul   $0x1ba0,%eax,%eax
    1d1a:	89 44 24 0c          	mov    %eax,0xc(%rsp)
    1d1e:	8b 44 24 08          	mov    0x8(%rsp),%eax
    1d22:	69 c0 d9 76 00 00    	imul   $0x76d9,%eax,%eax
    1d28:	89 44 24 08          	mov    %eax,0x8(%rsp)
    1d2c:	8b 44 24 0c          	mov    0xc(%rsp),%eax
    1d30:	69 c0 2e 13 00 00    	imul   $0x132e,%eax,%eax
    1d36:	89 44 24 0c          	mov    %eax,0xc(%rsp)
    1d3a:	8b 44 24 14          	mov    0x14(%rsp),%eax
    1d3e:	69 c0 3a cb 00 00    	imul   $0xcb3a,%eax,%eax
    1d44:	89 44 24 14          	mov    %eax,0x14(%rsp)
    1d48:	8b 44 24 10          	mov    0x10(%rsp),%eax
    1d4c:	69 c0 f6 6c 00 00    	imul   $0x6cf6,%eax,%eax
    1d52:	89 44 24 10          	mov    %eax,0x10(%rsp)
    1d56:	8b 44 24 04          	mov    0x4(%rsp),%eax
    1d5a:	69 c0 76 32 00 00    	imul   $0x3276,%eax,%eax
    1d60:	89 44 24 04          	mov    %eax,0x4(%rsp)
    1d64:	8b 44 24 10          	mov    0x10(%rsp),%eax
    1d68:	69 c0 d2 5d 00 00    	imul   $0x5dd2,%eax,%eax
    1d6e:	89 44 24 10          	mov    %eax,0x10(%rsp)
    1d72:	8b 44 24 24          	mov    0x24(%rsp),%eax
    1d76:	69 c0 d5 83 00 00    	imul   $0x83d5,%eax,%eax
    1d7c:	89 44 24 24          	mov    %eax,0x24(%rsp)
    1d80:	8b 04 24             	mov    (%rsp),%eax
    1d83:	69 c0 fa e4 00 00    	imul   $0xe4fa,%eax,%eax
    1d89:	89 04 24             	mov    %eax,(%rsp)
    1d8c:	b8 00 00 00 00       	mov    $0x0,%eax
    1d91:	ba 00 00 00 00       	mov    $0x0,%edx
    1d96:	83 f8 09             	cmp    $0x9,%eax
    1d99:	77 0c                	ja     1da7 <scramble+0x42b>
    1d9b:	89 c1                	mov    %eax,%ecx
    1d9d:	8b 0c 8c             	mov    (%rsp,%rcx,4),%ecx
    1da0:	01 ca                	add    %ecx,%edx
    1da2:	83 c0 01             	add    $0x1,%eax
    1da5:	eb ef                	jmp    1d96 <scramble+0x41a>
    1da7:	48 8b 44 24 28       	mov    0x28(%rsp),%rax
    1dac:	64 48 33 04 25 28 00 	xor    %fs:0x28,%rax
    1db3:	00 00 
    1db5:	75 07                	jne    1dbe <scramble+0x442>
    1db7:	89 d0                	mov    %edx,%eax
    1db9:	48 83 c4 38          	add    $0x38,%rsp
    1dbd:	c3                   	retq   
    1dbe:	e8 fd f4 ff ff       	callq  12c0 <__stack_chk_fail@plt>

0000000000001dc3 <getbuf>:
    1dc3:	f3 0f 1e fa          	endbr64 
    1dc7:	48 83 ec 18          	sub    $0x18,%rsp
    1dcb:	48 89 e7             	mov    %rsp,%rdi
    1dce:	e8 b5 02 00 00       	callq  2088 <Gets>
    1dd3:	b8 01 00 00 00       	mov    $0x1,%eax
    1dd8:	48 83 c4 18          	add    $0x18,%rsp
    1ddc:	c3                   	retq   

0000000000001ddd <touch1>:
    1ddd:	f3 0f 1e fa          	endbr64 
    1de1:	50                   	push   %rax
    1de2:	58                   	pop    %rax
    1de3:	48 83 ec 08          	sub    $0x8,%rsp
    1de7:	c7 05 eb 55 00 00 01 	movl   $0x1,0x55eb(%rip)        # 73dc <vlevel>
    1dee:	00 00 00 
    1df1:	48 8d 3d df 24 00 00 	lea    0x24df(%rip),%rdi        # 42d7 <_IO_stdin_used+0x2d7>
    1df8:	e8 a3 f4 ff ff       	callq  12a0 <puts@plt>
    1dfd:	bf 01 00 00 00       	mov    $0x1,%edi
    1e02:	e8 f4 04 00 00       	callq  22fb <validate>
    1e07:	bf 00 00 00 00       	mov    $0x0,%edi
    1e0c:	e8 ef f5 ff ff       	callq  1400 <exit@plt>

0000000000001e11 <touch2>:
    1e11:	f3 0f 1e fa          	endbr64 
    1e15:	50                   	push   %rax
    1e16:	58                   	pop    %rax
    1e17:	48 83 ec 08          	sub    $0x8,%rsp
    1e1b:	89 fa                	mov    %edi,%edx
    1e1d:	c7 05 b5 55 00 00 02 	movl   $0x2,0x55b5(%rip)        # 73dc <vlevel>
    1e24:	00 00 00 
    1e27:	39 3d b7 55 00 00    	cmp    %edi,0x55b7(%rip)        # 73e4 <cookie>
    1e2d:	74 2a                	je     1e59 <touch2+0x48>
    1e2f:	48 8d 35 f2 24 00 00 	lea    0x24f2(%rip),%rsi        # 4328 <_IO_stdin_used+0x328>
    1e36:	bf 01 00 00 00       	mov    $0x1,%edi
    1e3b:	b8 00 00 00 00       	mov    $0x0,%eax
    1e40:	e8 6b f5 ff ff       	callq  13b0 <__printf_chk@plt>
    1e45:	bf 02 00 00 00       	mov    $0x2,%edi
    1e4a:	e8 80 05 00 00       	callq  23cf <fail>
    1e4f:	bf 00 00 00 00       	mov    $0x0,%edi
    1e54:	e8 a7 f5 ff ff       	callq  1400 <exit@plt>
    1e59:	48 8d 35 a0 24 00 00 	lea    0x24a0(%rip),%rsi        # 4300 <_IO_stdin_used+0x300>
    1e60:	bf 01 00 00 00       	mov    $0x1,%edi
    1e65:	b8 00 00 00 00       	mov    $0x0,%eax
    1e6a:	e8 41 f5 ff ff       	callq  13b0 <__printf_chk@plt>
    1e6f:	bf 02 00 00 00       	mov    $0x2,%edi
    1e74:	e8 82 04 00 00       	callq  22fb <validate>
    1e79:	eb d4                	jmp    1e4f <touch2+0x3e>

0000000000001e7b <hexmatch>:
    1e7b:	f3 0f 1e fa          	endbr64 
    1e7f:	41 55                	push   %r13
    1e81:	41 54                	push   %r12
    1e83:	55                   	push   %rbp
    1e84:	53                   	push   %rbx
    1e85:	48 81 ec 88 00 00 00 	sub    $0x88,%rsp
    1e8c:	89 fd                	mov    %edi,%ebp
    1e8e:	48 89 f3             	mov    %rsi,%rbx
    1e91:	41 bc 28 00 00 00    	mov    $0x28,%r12d
    1e97:	64 49 8b 04 24       	mov    %fs:(%r12),%rax
    1e9c:	48 89 44 24 78       	mov    %rax,0x78(%rsp)
    1ea1:	31 c0                	xor    %eax,%eax
    1ea3:	e8 d8 f4 ff ff       	callq  1380 <random@plt>
    1ea8:	48 89 c1             	mov    %rax,%rcx
    1eab:	48 ba 0b d7 a3 70 3d 	movabs $0xa3d70a3d70a3d70b,%rdx
    1eb2:	0a d7 a3 
    1eb5:	48 f7 ea             	imul   %rdx
    1eb8:	48 01 ca             	add    %rcx,%rdx
    1ebb:	48 c1 fa 06          	sar    $0x6,%rdx
    1ebf:	48 89 c8             	mov    %rcx,%rax
    1ec2:	48 c1 f8 3f          	sar    $0x3f,%rax
    1ec6:	48 29 c2             	sub    %rax,%rdx
    1ec9:	48 8d 04 92          	lea    (%rdx,%rdx,4),%rax
    1ecd:	48 8d 04 80          	lea    (%rax,%rax,4),%rax
    1ed1:	48 c1 e0 02          	shl    $0x2,%rax
    1ed5:	48 29 c1             	sub    %rax,%rcx
    1ed8:	4c 8d 2c 0c          	lea    (%rsp,%rcx,1),%r13
    1edc:	41 89 e8             	mov    %ebp,%r8d
    1edf:	48 8d 0d 0e 24 00 00 	lea    0x240e(%rip),%rcx        # 42f4 <_IO_stdin_used+0x2f4>
    1ee6:	48 c7 c2 ff ff ff ff 	mov    $0xffffffffffffffff,%rdx
    1eed:	be 01 00 00 00       	mov    $0x1,%esi
    1ef2:	4c 89 ef             	mov    %r13,%rdi
    1ef5:	b8 00 00 00 00       	mov    $0x0,%eax
    1efa:	e8 41 f5 ff ff       	callq  1440 <__sprintf_chk@plt>
    1eff:	ba 09 00 00 00       	mov    $0x9,%edx
    1f04:	4c 89 ee             	mov    %r13,%rsi
    1f07:	48 89 df             	mov    %rbx,%rdi
    1f0a:	e8 71 f3 ff ff       	callq  1280 <strncmp@plt>
    1f0f:	85 c0                	test   %eax,%eax
    1f11:	0f 94 c0             	sete   %al
    1f14:	48 8b 5c 24 78       	mov    0x78(%rsp),%rbx
    1f19:	64 49 33 1c 24       	xor    %fs:(%r12),%rbx
    1f1e:	75 11                	jne    1f31 <hexmatch+0xb6>
    1f20:	0f b6 c0             	movzbl %al,%eax
    1f23:	48 81 c4 88 00 00 00 	add    $0x88,%rsp
    1f2a:	5b                   	pop    %rbx
    1f2b:	5d                   	pop    %rbp
    1f2c:	41 5c                	pop    %r12
    1f2e:	41 5d                	pop    %r13
    1f30:	c3                   	retq   
    1f31:	e8 8a f3 ff ff       	callq  12c0 <__stack_chk_fail@plt>

0000000000001f36 <touch3>:
    1f36:	f3 0f 1e fa          	endbr64 
    1f3a:	53                   	push   %rbx
    1f3b:	48 89 fb             	mov    %rdi,%rbx
    1f3e:	c7 05 94 54 00 00 03 	movl   $0x3,0x5494(%rip)        # 73dc <vlevel>
    1f45:	00 00 00 
    1f48:	48 89 fe             	mov    %rdi,%rsi
    1f4b:	8b 3d 93 54 00 00    	mov    0x5493(%rip),%edi        # 73e4 <cookie>
    1f51:	e8 25 ff ff ff       	callq  1e7b <hexmatch>
    1f56:	85 c0                	test   %eax,%eax
    1f58:	74 2d                	je     1f87 <touch3+0x51>
    1f5a:	48 89 da             	mov    %rbx,%rdx
    1f5d:	48 8d 35 ec 23 00 00 	lea    0x23ec(%rip),%rsi        # 4350 <_IO_stdin_used+0x350>
    1f64:	bf 01 00 00 00       	mov    $0x1,%edi
    1f69:	b8 00 00 00 00       	mov    $0x0,%eax
    1f6e:	e8 3d f4 ff ff       	callq  13b0 <__printf_chk@plt>
    1f73:	bf 03 00 00 00       	mov    $0x3,%edi
    1f78:	e8 7e 03 00 00       	callq  22fb <validate>
    1f7d:	bf 00 00 00 00       	mov    $0x0,%edi
    1f82:	e8 79 f4 ff ff       	callq  1400 <exit@plt>
    1f87:	48 89 da             	mov    %rbx,%rdx
    1f8a:	48 8d 35 e7 23 00 00 	lea    0x23e7(%rip),%rsi        # 4378 <_IO_stdin_used+0x378>
    1f91:	bf 01 00 00 00       	mov    $0x1,%edi
    1f96:	b8 00 00 00 00       	mov    $0x0,%eax
    1f9b:	e8 10 f4 ff ff       	callq  13b0 <__printf_chk@plt>
    1fa0:	bf 03 00 00 00       	mov    $0x3,%edi
    1fa5:	e8 25 04 00 00       	callq  23cf <fail>
    1faa:	eb d1                	jmp    1f7d <touch3+0x47>

0000000000001fac <test>:
    1fac:	f3 0f 1e fa          	endbr64 
    1fb0:	48 83 ec 08          	sub    $0x8,%rsp
    1fb4:	b8 00 00 00 00       	mov    $0x0,%eax
    1fb9:	e8 05 fe ff ff       	callq  1dc3 <getbuf>
    1fbe:	89 c2                	mov    %eax,%edx
    1fc0:	48 8d 35 d9 23 00 00 	lea    0x23d9(%rip),%rsi        # 43a0 <_IO_stdin_used+0x3a0>
    1fc7:	bf 01 00 00 00       	mov    $0x1,%edi
    1fcc:	b8 00 00 00 00       	mov    $0x0,%eax
    1fd1:	e8 da f3 ff ff       	callq  13b0 <__printf_chk@plt>
    1fd6:	48 83 c4 08          	add    $0x8,%rsp
    1fda:	c3                   	retq   

0000000000001fdb <save_char>:
    1fdb:	8b 05 23 60 00 00    	mov    0x6023(%rip),%eax        # 8004 <gets_cnt>
    1fe1:	3d ff 03 00 00       	cmp    $0x3ff,%eax
    1fe6:	7f 4a                	jg     2032 <save_char+0x57>
    1fe8:	89 f9                	mov    %edi,%ecx
    1fea:	c0 e9 04             	shr    $0x4,%cl
    1fed:	8d 14 40             	lea    (%rax,%rax,2),%edx
    1ff0:	4c 8d 05 c9 26 00 00 	lea    0x26c9(%rip),%r8        # 46c0 <trans_char>
    1ff7:	83 e1 0f             	and    $0xf,%ecx
    1ffa:	45 0f b6 0c 08       	movzbl (%r8,%rcx,1),%r9d
    1fff:	48 8d 0d fa 53 00 00 	lea    0x53fa(%rip),%rcx        # 7400 <gets_buf>
    2006:	48 63 f2             	movslq %edx,%rsi
    2009:	44 88 0c 31          	mov    %r9b,(%rcx,%rsi,1)
    200d:	8d 72 01             	lea    0x1(%rdx),%esi
    2010:	83 e7 0f             	and    $0xf,%edi
    2013:	41 0f b6 3c 38       	movzbl (%r8,%rdi,1),%edi
    2018:	48 63 f6             	movslq %esi,%rsi
    201b:	40 88 3c 31          	mov    %dil,(%rcx,%rsi,1)
    201f:	83 c2 02             	add    $0x2,%edx
    2022:	48 63 d2             	movslq %edx,%rdx
    2025:	c6 04 11 20          	movb   $0x20,(%rcx,%rdx,1)
    2029:	83 c0 01             	add    $0x1,%eax
    202c:	89 05 d2 5f 00 00    	mov    %eax,0x5fd2(%rip)        # 8004 <gets_cnt>
    2032:	c3                   	retq   

0000000000002033 <save_term>:
    2033:	8b 05 cb 5f 00 00    	mov    0x5fcb(%rip),%eax        # 8004 <gets_cnt>
    2039:	8d 04 40             	lea    (%rax,%rax,2),%eax
    203c:	48 98                	cltq   
    203e:	48 8d 15 bb 53 00 00 	lea    0x53bb(%rip),%rdx        # 7400 <gets_buf>
    2045:	c6 04 02 00          	movb   $0x0,(%rdx,%rax,1)
    2049:	c3                   	retq   

000000000000204a <check_fail>:
    204a:	f3 0f 1e fa          	endbr64 
    204e:	50                   	push   %rax
    204f:	58                   	pop    %rax
    2050:	48 83 ec 08          	sub    $0x8,%rsp
    2054:	0f be 15 ad 5f 00 00 	movsbl 0x5fad(%rip),%edx        # 8008 <target_prefix>
    205b:	4c 8d 05 9e 53 00 00 	lea    0x539e(%rip),%r8        # 7400 <gets_buf>
    2062:	8b 0d 70 53 00 00    	mov    0x5370(%rip),%ecx        # 73d8 <check_level>
    2068:	48 8d 35 54 23 00 00 	lea    0x2354(%rip),%rsi        # 43c3 <_IO_stdin_used+0x3c3>
    206f:	bf 01 00 00 00       	mov    $0x1,%edi
    2074:	b8 00 00 00 00       	mov    $0x0,%eax
    2079:	e8 32 f3 ff ff       	callq  13b0 <__printf_chk@plt>
    207e:	bf 01 00 00 00       	mov    $0x1,%edi
    2083:	e8 78 f3 ff ff       	callq  1400 <exit@plt>

0000000000002088 <Gets>:
    2088:	f3 0f 1e fa          	endbr64 
    208c:	41 54                	push   %r12
    208e:	55                   	push   %rbp
    208f:	53                   	push   %rbx
    2090:	49 89 fc             	mov    %rdi,%r12
    2093:	c7 05 67 5f 00 00 00 	movl   $0x0,0x5f67(%rip)        # 8004 <gets_cnt>
    209a:	00 00 00 
    209d:	48 89 fb             	mov    %rdi,%rbx
    20a0:	48 8b 3d 29 53 00 00 	mov    0x5329(%rip),%rdi        # 73d0 <infile>
    20a7:	e8 84 f3 ff ff       	callq  1430 <getc@plt>
    20ac:	83 f8 ff             	cmp    $0xffffffff,%eax
    20af:	74 18                	je     20c9 <Gets+0x41>
    20b1:	83 f8 0a             	cmp    $0xa,%eax
    20b4:	74 13                	je     20c9 <Gets+0x41>
    20b6:	48 8d 6b 01          	lea    0x1(%rbx),%rbp
    20ba:	88 03                	mov    %al,(%rbx)
    20bc:	0f b6 f8             	movzbl %al,%edi
    20bf:	e8 17 ff ff ff       	callq  1fdb <save_char>
    20c4:	48 89 eb             	mov    %rbp,%rbx
    20c7:	eb d7                	jmp    20a0 <Gets+0x18>
    20c9:	c6 03 00             	movb   $0x0,(%rbx)
    20cc:	b8 00 00 00 00       	mov    $0x0,%eax
    20d1:	e8 5d ff ff ff       	callq  2033 <save_term>
    20d6:	4c 89 e0             	mov    %r12,%rax
    20d9:	5b                   	pop    %rbx
    20da:	5d                   	pop    %rbp
    20db:	41 5c                	pop    %r12
    20dd:	c3                   	retq   

00000000000020de <notify_server>:
    20de:	f3 0f 1e fa          	endbr64 
    20e2:	55                   	push   %rbp
    20e3:	53                   	push   %rbx
    20e4:	4c 8d 9c 24 00 c0 ff 	lea    -0x4000(%rsp),%r11
    20eb:	ff 
    20ec:	48 81 ec 00 10 00 00 	sub    $0x1000,%rsp
    20f3:	48 83 0c 24 00       	orq    $0x0,(%rsp)
    20f8:	4c 39 dc             	cmp    %r11,%rsp
    20fb:	75 ef                	jne    20ec <notify_server+0xe>
    20fd:	48 83 ec 18          	sub    $0x18,%rsp
    2101:	64 48 8b 04 25 28 00 	mov    %fs:0x28,%rax
    2108:	00 00 
    210a:	48 89 84 24 08 40 00 	mov    %rax,0x4008(%rsp)
    2111:	00 
    2112:	31 c0                	xor    %eax,%eax
    2114:	83 3d cd 52 00 00 00 	cmpl   $0x0,0x52cd(%rip)        # 73e8 <is_checker>
    211b:	0f 85 26 01 00 00    	jne    2247 <notify_server+0x169>
    2121:	89 fb                	mov    %edi,%ebx
    2123:	81 3d d7 5e 00 00 9c 	cmpl   $0x1f9c,0x5ed7(%rip)        # 8004 <gets_cnt>
    212a:	1f 00 00 
    212d:	7f 18                	jg     2147 <notify_server+0x69>
    212f:	0f be 05 d2 5e 00 00 	movsbl 0x5ed2(%rip),%eax        # 8008 <target_prefix>
    2136:	83 3d 2b 52 00 00 00 	cmpl   $0x0,0x522b(%rip)        # 7368 <notify>
    213d:	74 23                	je     2162 <notify_server+0x84>
    213f:	8b 15 9b 52 00 00    	mov    0x529b(%rip),%edx        # 73e0 <authkey>
    2145:	eb 20                	jmp    2167 <notify_server+0x89>
    2147:	48 8d 35 aa 23 00 00 	lea    0x23aa(%rip),%rsi        # 44f8 <_IO_stdin_used+0x4f8>
    214e:	bf 01 00 00 00       	mov    $0x1,%edi
    2153:	e8 58 f2 ff ff       	callq  13b0 <__printf_chk@plt>
    2158:	bf 01 00 00 00       	mov    $0x1,%edi
    215d:	e8 9e f2 ff ff       	callq  1400 <exit@plt>
    2162:	ba ff ff ff ff       	mov    $0xffffffff,%edx
    2167:	85 db                	test   %ebx,%ebx
    2169:	0f 84 98 00 00 00    	je     2207 <notify_server+0x129>
    216f:	48 8d 2d 68 22 00 00 	lea    0x2268(%rip),%rbp        # 43de <_IO_stdin_used+0x3de>
    2176:	48 89 e7             	mov    %rsp,%rdi
    2179:	48 8d 0d 80 52 00 00 	lea    0x5280(%rip),%rcx        # 7400 <gets_buf>
    2180:	51                   	push   %rcx
    2181:	56                   	push   %rsi
    2182:	50                   	push   %rax
    2183:	52                   	push   %rdx
    2184:	49 89 e9             	mov    %rbp,%r9
    2187:	44 8b 05 82 4e 00 00 	mov    0x4e82(%rip),%r8d        # 7010 <target_id>
    218e:	48 8d 0d 4e 22 00 00 	lea    0x224e(%rip),%rcx        # 43e3 <_IO_stdin_used+0x3e3>
    2195:	ba 00 20 00 00       	mov    $0x2000,%edx
    219a:	be 01 00 00 00       	mov    $0x1,%esi
    219f:	b8 00 00 00 00       	mov    $0x0,%eax
    21a4:	e8 97 f2 ff ff       	callq  1440 <__sprintf_chk@plt>
    21a9:	48 83 c4 20          	add    $0x20,%rsp
    21ad:	83 3d b4 51 00 00 00 	cmpl   $0x0,0x51b4(%rip)        # 7368 <notify>
    21b4:	0f 84 ae 00 00 00    	je     2268 <notify_server+0x18a>
    21ba:	85 db                	test   %ebx,%ebx
    21bc:	74 7d                	je     223b <notify_server+0x15d>
    21be:	48 89 e1             	mov    %rsp,%rcx
    21c1:	4c 8d 8c 24 00 20 00 	lea    0x2000(%rsp),%r9
    21c8:	00 
    21c9:	41 b8 00 00 00 00    	mov    $0x0,%r8d
    21cf:	48 8b 15 52 4e 00 00 	mov    0x4e52(%rip),%rdx        # 7028 <lab>
    21d6:	48 8b 35 53 4e 00 00 	mov    0x4e53(%rip),%rsi        # 7030 <course>
    21dd:	48 8b 3d 3c 4e 00 00 	mov    0x4e3c(%rip),%rdi        # 7020 <user_id>
    21e4:	e8 d9 11 00 00       	callq  33c2 <driver_post>
    21e9:	85 c0                	test   %eax,%eax
    21eb:	78 26                	js     2213 <notify_server+0x135>
    21ed:	48 8d 3d 34 23 00 00 	lea    0x2334(%rip),%rdi        # 4528 <_IO_stdin_used+0x528>
    21f4:	e8 a7 f0 ff ff       	callq  12a0 <puts@plt>
    21f9:	48 8d 3d 0b 22 00 00 	lea    0x220b(%rip),%rdi        # 440b <_IO_stdin_used+0x40b>
    2200:	e8 9b f0 ff ff       	callq  12a0 <puts@plt>
    2205:	eb 40                	jmp    2247 <notify_server+0x169>
    2207:	48 8d 2d cb 21 00 00 	lea    0x21cb(%rip),%rbp        # 43d9 <_IO_stdin_used+0x3d9>
    220e:	e9 63 ff ff ff       	jmpq   2176 <notify_server+0x98>
    2213:	48 8d 94 24 00 20 00 	lea    0x2000(%rsp),%rdx
    221a:	00 
    221b:	48 8d 35 dd 21 00 00 	lea    0x21dd(%rip),%rsi        # 43ff <_IO_stdin_used+0x3ff>
    2222:	bf 01 00 00 00       	mov    $0x1,%edi
    2227:	b8 00 00 00 00       	mov    $0x0,%eax
    222c:	e8 7f f1 ff ff       	callq  13b0 <__printf_chk@plt>
    2231:	bf 01 00 00 00       	mov    $0x1,%edi
    2236:	e8 c5 f1 ff ff       	callq  1400 <exit@plt>
    223b:	48 8d 3d d3 21 00 00 	lea    0x21d3(%rip),%rdi        # 4415 <_IO_stdin_used+0x415>
    2242:	e8 59 f0 ff ff       	callq  12a0 <puts@plt>
    2247:	48 8b 84 24 08 40 00 	mov    0x4008(%rsp),%rax
    224e:	00 
    224f:	64 48 33 04 25 28 00 	xor    %fs:0x28,%rax
    2256:	00 00 
    2258:	0f 85 98 00 00 00    	jne    22f6 <notify_server+0x218>
    225e:	48 81 c4 18 40 00 00 	add    $0x4018,%rsp
    2265:	5b                   	pop    %rbx
    2266:	5d                   	pop    %rbp
    2267:	c3                   	retq   
    2268:	48 89 ea             	mov    %rbp,%rdx
    226b:	48 8d 35 ee 22 00 00 	lea    0x22ee(%rip),%rsi        # 4560 <_IO_stdin_used+0x560>
    2272:	bf 01 00 00 00       	mov    $0x1,%edi
    2277:	b8 00 00 00 00       	mov    $0x0,%eax
    227c:	e8 2f f1 ff ff       	callq  13b0 <__printf_chk@plt>
    2281:	48 8b 15 98 4d 00 00 	mov    0x4d98(%rip),%rdx        # 7020 <user_id>
    2288:	48 8d 35 8d 21 00 00 	lea    0x218d(%rip),%rsi        # 441c <_IO_stdin_used+0x41c>
    228f:	bf 01 00 00 00       	mov    $0x1,%edi
    2294:	b8 00 00 00 00       	mov    $0x0,%eax
    2299:	e8 12 f1 ff ff       	callq  13b0 <__printf_chk@plt>
    229e:	48 8b 15 8b 4d 00 00 	mov    0x4d8b(%rip),%rdx        # 7030 <course>
    22a5:	48 8d 35 7d 21 00 00 	lea    0x217d(%rip),%rsi        # 4429 <_IO_stdin_used+0x429>
    22ac:	bf 01 00 00 00       	mov    $0x1,%edi
    22b1:	b8 00 00 00 00       	mov    $0x0,%eax
    22b6:	e8 f5 f0 ff ff       	callq  13b0 <__printf_chk@plt>
    22bb:	48 8b 15 66 4d 00 00 	mov    0x4d66(%rip),%rdx        # 7028 <lab>
    22c2:	48 8d 35 6c 21 00 00 	lea    0x216c(%rip),%rsi        # 4435 <_IO_stdin_used+0x435>
    22c9:	bf 01 00 00 00       	mov    $0x1,%edi
    22ce:	b8 00 00 00 00       	mov    $0x0,%eax
    22d3:	e8 d8 f0 ff ff       	callq  13b0 <__printf_chk@plt>
    22d8:	48 89 e2             	mov    %rsp,%rdx
    22db:	48 8d 35 5c 21 00 00 	lea    0x215c(%rip),%rsi        # 443e <_IO_stdin_used+0x43e>
    22e2:	bf 01 00 00 00       	mov    $0x1,%edi
    22e7:	b8 00 00 00 00       	mov    $0x0,%eax
    22ec:	e8 bf f0 ff ff       	callq  13b0 <__printf_chk@plt>
    22f1:	e9 51 ff ff ff       	jmpq   2247 <notify_server+0x169>
    22f6:	e8 c5 ef ff ff       	callq  12c0 <__stack_chk_fail@plt>

00000000000022fb <validate>:
    22fb:	f3 0f 1e fa          	endbr64 
    22ff:	53                   	push   %rbx
    2300:	89 fb                	mov    %edi,%ebx
    2302:	83 3d df 50 00 00 00 	cmpl   $0x0,0x50df(%rip)        # 73e8 <is_checker>
    2309:	74 72                	je     237d <validate+0x82>
    230b:	39 3d cb 50 00 00    	cmp    %edi,0x50cb(%rip)        # 73dc <vlevel>
    2311:	75 32                	jne    2345 <validate+0x4a>
    2313:	8b 15 bf 50 00 00    	mov    0x50bf(%rip),%edx        # 73d8 <check_level>
    2319:	39 fa                	cmp    %edi,%edx
    231b:	75 3e                	jne    235b <validate+0x60>
    231d:	0f be 15 e4 5c 00 00 	movsbl 0x5ce4(%rip),%edx        # 8008 <target_prefix>
    2324:	4c 8d 05 d5 50 00 00 	lea    0x50d5(%rip),%r8        # 7400 <gets_buf>
    232b:	89 f9                	mov    %edi,%ecx
    232d:	48 8d 35 34 21 00 00 	lea    0x2134(%rip),%rsi        # 4468 <_IO_stdin_used+0x468>
    2334:	bf 01 00 00 00       	mov    $0x1,%edi
    2339:	b8 00 00 00 00       	mov    $0x0,%eax
    233e:	e8 6d f0 ff ff       	callq  13b0 <__printf_chk@plt>
    2343:	5b                   	pop    %rbx
    2344:	c3                   	retq   
    2345:	48 8d 3d fe 20 00 00 	lea    0x20fe(%rip),%rdi        # 444a <_IO_stdin_used+0x44a>
    234c:	e8 4f ef ff ff       	callq  12a0 <puts@plt>
    2351:	b8 00 00 00 00       	mov    $0x0,%eax
    2356:	e8 ef fc ff ff       	callq  204a <check_fail>
    235b:	89 f9                	mov    %edi,%ecx
    235d:	48 8d 35 24 22 00 00 	lea    0x2224(%rip),%rsi        # 4588 <_IO_stdin_used+0x588>
    2364:	bf 01 00 00 00       	mov    $0x1,%edi
    2369:	b8 00 00 00 00       	mov    $0x0,%eax
    236e:	e8 3d f0 ff ff       	callq  13b0 <__printf_chk@plt>
    2373:	b8 00 00 00 00       	mov    $0x0,%eax
    2378:	e8 cd fc ff ff       	callq  204a <check_fail>
    237d:	39 3d 59 50 00 00    	cmp    %edi,0x5059(%rip)        # 73dc <vlevel>
    2383:	74 1a                	je     239f <validate+0xa4>
    2385:	48 8d 3d be 20 00 00 	lea    0x20be(%rip),%rdi        # 444a <_IO_stdin_used+0x44a>
    238c:	e8 0f ef ff ff       	callq  12a0 <puts@plt>
    2391:	89 de                	mov    %ebx,%esi
    2393:	bf 00 00 00 00       	mov    $0x0,%edi
    2398:	e8 41 fd ff ff       	callq  20de <notify_server>
    239d:	eb a4                	jmp    2343 <validate+0x48>
    239f:	0f be 0d 62 5c 00 00 	movsbl 0x5c62(%rip),%ecx        # 8008 <target_prefix>
    23a6:	89 fa                	mov    %edi,%edx
    23a8:	48 8d 35 01 22 00 00 	lea    0x2201(%rip),%rsi        # 45b0 <_IO_stdin_used+0x5b0>
    23af:	bf 01 00 00 00       	mov    $0x1,%edi
    23b4:	b8 00 00 00 00       	mov    $0x0,%eax
    23b9:	e8 f2 ef ff ff       	callq  13b0 <__printf_chk@plt>
    23be:	89 de                	mov    %ebx,%esi
    23c0:	bf 01 00 00 00       	mov    $0x1,%edi
    23c5:	e8 14 fd ff ff       	callq  20de <notify_server>
    23ca:	e9 74 ff ff ff       	jmpq   2343 <validate+0x48>

00000000000023cf <fail>:
    23cf:	f3 0f 1e fa          	endbr64 
    23d3:	48 83 ec 08          	sub    $0x8,%rsp
    23d7:	83 3d 0a 50 00 00 00 	cmpl   $0x0,0x500a(%rip)        # 73e8 <is_checker>
    23de:	75 11                	jne    23f1 <fail+0x22>
    23e0:	89 fe                	mov    %edi,%esi
    23e2:	bf 00 00 00 00       	mov    $0x0,%edi
    23e7:	e8 f2 fc ff ff       	callq  20de <notify_server>
    23ec:	48 83 c4 08          	add    $0x8,%rsp
    23f0:	c3                   	retq   
    23f1:	b8 00 00 00 00       	mov    $0x0,%eax
    23f6:	e8 4f fc ff ff       	callq  204a <check_fail>

00000000000023fb <bushandler>:
    23fb:	f3 0f 1e fa          	endbr64 
    23ff:	50                   	push   %rax
    2400:	58                   	pop    %rax
    2401:	48 83 ec 08          	sub    $0x8,%rsp
    2405:	83 3d dc 4f 00 00 00 	cmpl   $0x0,0x4fdc(%rip)        # 73e8 <is_checker>
    240c:	74 16                	je     2424 <bushandler+0x29>
    240e:	48 8d 3d 68 20 00 00 	lea    0x2068(%rip),%rdi        # 447d <_IO_stdin_used+0x47d>
    2415:	e8 86 ee ff ff       	callq  12a0 <puts@plt>
    241a:	b8 00 00 00 00       	mov    $0x0,%eax
    241f:	e8 26 fc ff ff       	callq  204a <check_fail>
    2424:	48 8d 3d bd 21 00 00 	lea    0x21bd(%rip),%rdi        # 45e8 <_IO_stdin_used+0x5e8>
    242b:	e8 70 ee ff ff       	callq  12a0 <puts@plt>
    2430:	48 8d 3d 50 20 00 00 	lea    0x2050(%rip),%rdi        # 4487 <_IO_stdin_used+0x487>
    2437:	e8 64 ee ff ff       	callq  12a0 <puts@plt>
    243c:	be 00 00 00 00       	mov    $0x0,%esi
    2441:	bf 00 00 00 00       	mov    $0x0,%edi
    2446:	e8 93 fc ff ff       	callq  20de <notify_server>
    244b:	bf 01 00 00 00       	mov    $0x1,%edi
    2450:	e8 ab ef ff ff       	callq  1400 <exit@plt>

0000000000002455 <seghandler>:
    2455:	f3 0f 1e fa          	endbr64 
    2459:	50                   	push   %rax
    245a:	58                   	pop    %rax
    245b:	48 83 ec 08          	sub    $0x8,%rsp
    245f:	83 3d 82 4f 00 00 00 	cmpl   $0x0,0x4f82(%rip)        # 73e8 <is_checker>
    2466:	74 16                	je     247e <seghandler+0x29>
    2468:	48 8d 3d 2e 20 00 00 	lea    0x202e(%rip),%rdi        # 449d <_IO_stdin_used+0x49d>
    246f:	e8 2c ee ff ff       	callq  12a0 <puts@plt>
    2474:	b8 00 00 00 00       	mov    $0x0,%eax
    2479:	e8 cc fb ff ff       	callq  204a <check_fail>
    247e:	48 8d 3d 83 21 00 00 	lea    0x2183(%rip),%rdi        # 4608 <_IO_stdin_used+0x608>
    2485:	e8 16 ee ff ff       	callq  12a0 <puts@plt>
    248a:	48 8d 3d f6 1f 00 00 	lea    0x1ff6(%rip),%rdi        # 4487 <_IO_stdin_used+0x487>
    2491:	e8 0a ee ff ff       	callq  12a0 <puts@plt>
    2496:	be 00 00 00 00       	mov    $0x0,%esi
    249b:	bf 00 00 00 00       	mov    $0x0,%edi
    24a0:	e8 39 fc ff ff       	callq  20de <notify_server>
    24a5:	bf 01 00 00 00       	mov    $0x1,%edi
    24aa:	e8 51 ef ff ff       	callq  1400 <exit@plt>

00000000000024af <illegalhandler>:
    24af:	f3 0f 1e fa          	endbr64 
    24b3:	50                   	push   %rax
    24b4:	58                   	pop    %rax
    24b5:	48 83 ec 08          	sub    $0x8,%rsp
    24b9:	83 3d 28 4f 00 00 00 	cmpl   $0x0,0x4f28(%rip)        # 73e8 <is_checker>
    24c0:	74 16                	je     24d8 <illegalhandler+0x29>
    24c2:	48 8d 3d e7 1f 00 00 	lea    0x1fe7(%rip),%rdi        # 44b0 <_IO_stdin_used+0x4b0>
    24c9:	e8 d2 ed ff ff       	callq  12a0 <puts@plt>
    24ce:	b8 00 00 00 00       	mov    $0x0,%eax
    24d3:	e8 72 fb ff ff       	callq  204a <check_fail>
    24d8:	48 8d 3d 51 21 00 00 	lea    0x2151(%rip),%rdi        # 4630 <_IO_stdin_used+0x630>
    24df:	e8 bc ed ff ff       	callq  12a0 <puts@plt>
    24e4:	48 8d 3d 9c 1f 00 00 	lea    0x1f9c(%rip),%rdi        # 4487 <_IO_stdin_used+0x487>
    24eb:	e8 b0 ed ff ff       	callq  12a0 <puts@plt>
    24f0:	be 00 00 00 00       	mov    $0x0,%esi
    24f5:	bf 00 00 00 00       	mov    $0x0,%edi
    24fa:	e8 df fb ff ff       	callq  20de <notify_server>
    24ff:	bf 01 00 00 00       	mov    $0x1,%edi
    2504:	e8 f7 ee ff ff       	callq  1400 <exit@plt>

0000000000002509 <sigalrmhandler>:
    2509:	f3 0f 1e fa          	endbr64 
    250d:	50                   	push   %rax
    250e:	58                   	pop    %rax
    250f:	48 83 ec 08          	sub    $0x8,%rsp
    2513:	83 3d ce 4e 00 00 00 	cmpl   $0x0,0x4ece(%rip)        # 73e8 <is_checker>
    251a:	74 16                	je     2532 <sigalrmhandler+0x29>
    251c:	48 8d 3d a1 1f 00 00 	lea    0x1fa1(%rip),%rdi        # 44c4 <_IO_stdin_used+0x4c4>
    2523:	e8 78 ed ff ff       	callq  12a0 <puts@plt>
    2528:	b8 00 00 00 00       	mov    $0x0,%eax
    252d:	e8 18 fb ff ff       	callq  204a <check_fail>
    2532:	ba 05 00 00 00       	mov    $0x5,%edx
    2537:	48 8d 35 22 21 00 00 	lea    0x2122(%rip),%rsi        # 4660 <_IO_stdin_used+0x660>
    253e:	bf 01 00 00 00       	mov    $0x1,%edi
    2543:	b8 00 00 00 00       	mov    $0x0,%eax
    2548:	e8 63 ee ff ff       	callq  13b0 <__printf_chk@plt>
    254d:	be 00 00 00 00       	mov    $0x0,%esi
    2552:	bf 00 00 00 00       	mov    $0x0,%edi
    2557:	e8 82 fb ff ff       	callq  20de <notify_server>
    255c:	bf 01 00 00 00       	mov    $0x1,%edi
    2561:	e8 9a ee ff ff       	callq  1400 <exit@plt>

0000000000002566 <launch>:
    2566:	f3 0f 1e fa          	endbr64 
    256a:	55                   	push   %rbp
    256b:	48 89 e5             	mov    %rsp,%rbp
    256e:	48 83 ec 10          	sub    $0x10,%rsp
    2572:	48 89 fa             	mov    %rdi,%rdx
    2575:	64 48 8b 04 25 28 00 	mov    %fs:0x28,%rax
    257c:	00 00 
    257e:	48 89 45 f8          	mov    %rax,-0x8(%rbp)
    2582:	31 c0                	xor    %eax,%eax
    2584:	48 8d 47 17          	lea    0x17(%rdi),%rax
    2588:	48 89 c1             	mov    %rax,%rcx
    258b:	48 83 e1 f0          	and    $0xfffffffffffffff0,%rcx
    258f:	48 25 00 f0 ff ff    	and    $0xfffffffffffff000,%rax
    2595:	48 89 e6             	mov    %rsp,%rsi
    2598:	48 29 c6             	sub    %rax,%rsi
    259b:	48 89 f0             	mov    %rsi,%rax
    259e:	48 39 c4             	cmp    %rax,%rsp
    25a1:	74 12                	je     25b5 <launch+0x4f>
    25a3:	48 81 ec 00 10 00 00 	sub    $0x1000,%rsp
    25aa:	48 83 8c 24 f8 0f 00 	orq    $0x0,0xff8(%rsp)
    25b1:	00 00 
    25b3:	eb e9                	jmp    259e <launch+0x38>
    25b5:	48 89 c8             	mov    %rcx,%rax
    25b8:	25 ff 0f 00 00       	and    $0xfff,%eax
    25bd:	48 29 c4             	sub    %rax,%rsp
    25c0:	48 85 c0             	test   %rax,%rax
    25c3:	74 06                	je     25cb <launch+0x65>
    25c5:	48 83 4c 04 f8 00    	orq    $0x0,-0x8(%rsp,%rax,1)
    25cb:	48 8d 7c 24 0f       	lea    0xf(%rsp),%rdi
    25d0:	48 83 e7 f0          	and    $0xfffffffffffffff0,%rdi
    25d4:	be f4 00 00 00       	mov    $0xf4,%esi
    25d9:	e8 02 ed ff ff       	callq  12e0 <memset@plt>
    25de:	48 8b 05 9b 4d 00 00 	mov    0x4d9b(%rip),%rax        # 7380 <stdin@@GLIBC_2.2.5>
    25e5:	48 39 05 e4 4d 00 00 	cmp    %rax,0x4de4(%rip)        # 73d0 <infile>
    25ec:	74 3a                	je     2628 <launch+0xc2>
    25ee:	c7 05 e4 4d 00 00 00 	movl   $0x0,0x4de4(%rip)        # 73dc <vlevel>
    25f5:	00 00 00 
    25f8:	b8 00 00 00 00       	mov    $0x0,%eax
    25fd:	e8 aa f9 ff ff       	callq  1fac <test>
    2602:	83 3d df 4d 00 00 00 	cmpl   $0x0,0x4ddf(%rip)        # 73e8 <is_checker>
    2609:	75 35                	jne    2640 <launch+0xda>
    260b:	48 8d 3d d2 1e 00 00 	lea    0x1ed2(%rip),%rdi        # 44e4 <_IO_stdin_used+0x4e4>
    2612:	e8 89 ec ff ff       	callq  12a0 <puts@plt>
    2617:	48 8b 45 f8          	mov    -0x8(%rbp),%rax
    261b:	64 48 33 04 25 28 00 	xor    %fs:0x28,%rax
    2622:	00 00 
    2624:	75 30                	jne    2656 <launch+0xf0>
    2626:	c9                   	leaveq 
    2627:	c3                   	retq   
    2628:	48 8d 35 9d 1e 00 00 	lea    0x1e9d(%rip),%rsi        # 44cc <_IO_stdin_used+0x4cc>
    262f:	bf 01 00 00 00       	mov    $0x1,%edi
    2634:	b8 00 00 00 00       	mov    $0x0,%eax
    2639:	e8 72 ed ff ff       	callq  13b0 <__printf_chk@plt>
    263e:	eb ae                	jmp    25ee <launch+0x88>
    2640:	48 8d 3d 92 1e 00 00 	lea    0x1e92(%rip),%rdi        # 44d9 <_IO_stdin_used+0x4d9>
    2647:	e8 54 ec ff ff       	callq  12a0 <puts@plt>
    264c:	b8 00 00 00 00       	mov    $0x0,%eax
    2651:	e8 f4 f9 ff ff       	callq  204a <check_fail>
    2656:	e8 65 ec ff ff       	callq  12c0 <__stack_chk_fail@plt>

000000000000265b <stable_launch>:
    265b:	f3 0f 1e fa          	endbr64 
    265f:	53                   	push   %rbx
    2660:	48 89 3d 61 4d 00 00 	mov    %rdi,0x4d61(%rip)        # 73c8 <global_offset>
    2667:	41 b9 00 00 00 00    	mov    $0x0,%r9d
    266d:	41 b8 00 00 00 00    	mov    $0x0,%r8d
    2673:	b9 32 01 00 00       	mov    $0x132,%ecx
    2678:	ba 07 00 00 00       	mov    $0x7,%edx
    267d:	be 00 00 10 00       	mov    $0x100000,%esi
    2682:	bf 00 60 58 55       	mov    $0x55586000,%edi
    2687:	e8 44 ec ff ff       	callq  12d0 <mmap@plt>
    268c:	48 89 c3             	mov    %rax,%rbx
    268f:	48 3d 00 60 58 55    	cmp    $0x55586000,%rax
    2695:	75 43                	jne    26da <stable_launch+0x7f>
    2697:	48 8d 90 f8 ff 0f 00 	lea    0xffff8(%rax),%rdx
    269e:	48 89 15 6b 59 00 00 	mov    %rdx,0x596b(%rip)        # 8010 <stack_top>
    26a5:	48 89 e0             	mov    %rsp,%rax
    26a8:	48 89 d4             	mov    %rdx,%rsp
    26ab:	48 89 c2             	mov    %rax,%rdx
    26ae:	48 89 15 0b 4d 00 00 	mov    %rdx,0x4d0b(%rip)        # 73c0 <global_save_stack>
    26b5:	48 8b 3d 0c 4d 00 00 	mov    0x4d0c(%rip),%rdi        # 73c8 <global_offset>
    26bc:	e8 a5 fe ff ff       	callq  2566 <launch>
    26c1:	48 8b 05 f8 4c 00 00 	mov    0x4cf8(%rip),%rax        # 73c0 <global_save_stack>
    26c8:	48 89 c4             	mov    %rax,%rsp
    26cb:	be 00 00 10 00       	mov    $0x100000,%esi
    26d0:	48 89 df             	mov    %rbx,%rdi
    26d3:	e8 c8 ec ff ff       	callq  13a0 <munmap@plt>
    26d8:	5b                   	pop    %rbx
    26d9:	c3                   	retq   
    26da:	be 00 00 10 00       	mov    $0x100000,%esi
    26df:	48 89 c7             	mov    %rax,%rdi
    26e2:	e8 b9 ec ff ff       	callq  13a0 <munmap@plt>
    26e7:	b9 00 60 58 55       	mov    $0x55586000,%ecx
    26ec:	48 8d 15 a5 1f 00 00 	lea    0x1fa5(%rip),%rdx        # 4698 <_IO_stdin_used+0x698>
    26f3:	be 01 00 00 00       	mov    $0x1,%esi
    26f8:	48 8b 3d a1 4c 00 00 	mov    0x4ca1(%rip),%rdi        # 73a0 <stderr@@GLIBC_2.2.5>
    26ff:	b8 00 00 00 00       	mov    $0x0,%eax
    2704:	e8 17 ed ff ff       	callq  1420 <__fprintf_chk@plt>
    2709:	bf 01 00 00 00       	mov    $0x1,%edi
    270e:	e8 ed ec ff ff       	callq  1400 <exit@plt>

0000000000002713 <rio_readinitb>:
    2713:	89 37                	mov    %esi,(%rdi)
    2715:	c7 47 04 00 00 00 00 	movl   $0x0,0x4(%rdi)
    271c:	48 8d 47 10          	lea    0x10(%rdi),%rax
    2720:	48 89 47 08          	mov    %rax,0x8(%rdi)
    2724:	c3                   	retq   

0000000000002725 <sigalrm_handler>:
    2725:	f3 0f 1e fa          	endbr64 
    2729:	50                   	push   %rax
    272a:	58                   	pop    %rax
    272b:	48 83 ec 08          	sub    $0x8,%rsp
    272f:	b9 00 00 00 00       	mov    $0x0,%ecx
    2734:	48 8d 15 95 1f 00 00 	lea    0x1f95(%rip),%rdx        # 46d0 <trans_char+0x10>
    273b:	be 01 00 00 00       	mov    $0x1,%esi
    2740:	48 8b 3d 59 4c 00 00 	mov    0x4c59(%rip),%rdi        # 73a0 <stderr@@GLIBC_2.2.5>
    2747:	b8 00 00 00 00       	mov    $0x0,%eax
    274c:	e8 cf ec ff ff       	callq  1420 <__fprintf_chk@plt>
    2751:	bf 01 00 00 00       	mov    $0x1,%edi
    2756:	e8 a5 ec ff ff       	callq  1400 <exit@plt>

000000000000275b <rio_writen>:
    275b:	41 55                	push   %r13
    275d:	41 54                	push   %r12
    275f:	55                   	push   %rbp
    2760:	53                   	push   %rbx
    2761:	48 83 ec 08          	sub    $0x8,%rsp
    2765:	41 89 fc             	mov    %edi,%r12d
    2768:	48 89 f5             	mov    %rsi,%rbp
    276b:	49 89 d5             	mov    %rdx,%r13
    276e:	48 89 d3             	mov    %rdx,%rbx
    2771:	eb 06                	jmp    2779 <rio_writen+0x1e>
    2773:	48 29 c3             	sub    %rax,%rbx
    2776:	48 01 c5             	add    %rax,%rbp
    2779:	48 85 db             	test   %rbx,%rbx
    277c:	74 24                	je     27a2 <rio_writen+0x47>
    277e:	48 89 da             	mov    %rbx,%rdx
    2781:	48 89 ee             	mov    %rbp,%rsi
    2784:	44 89 e7             	mov    %r12d,%edi
    2787:	e8 24 eb ff ff       	callq  12b0 <write@plt>
    278c:	48 85 c0             	test   %rax,%rax
    278f:	7f e2                	jg     2773 <rio_writen+0x18>
    2791:	e8 ca ea ff ff       	callq  1260 <__errno_location@plt>
    2796:	83 38 04             	cmpl   $0x4,(%rax)
    2799:	75 15                	jne    27b0 <rio_writen+0x55>
    279b:	b8 00 00 00 00       	mov    $0x0,%eax
    27a0:	eb d1                	jmp    2773 <rio_writen+0x18>
    27a2:	4c 89 e8             	mov    %r13,%rax
    27a5:	48 83 c4 08          	add    $0x8,%rsp
    27a9:	5b                   	pop    %rbx
    27aa:	5d                   	pop    %rbp
    27ab:	41 5c                	pop    %r12
    27ad:	41 5d                	pop    %r13
    27af:	c3                   	retq   
    27b0:	48 c7 c0 ff ff ff ff 	mov    $0xffffffffffffffff,%rax
    27b7:	eb ec                	jmp    27a5 <rio_writen+0x4a>

00000000000027b9 <rio_read>:
    27b9:	41 55                	push   %r13
    27bb:	41 54                	push   %r12
    27bd:	55                   	push   %rbp
    27be:	53                   	push   %rbx
    27bf:	48 83 ec 08          	sub    $0x8,%rsp
    27c3:	48 89 fb             	mov    %rdi,%rbx
    27c6:	49 89 f5             	mov    %rsi,%r13
    27c9:	49 89 d4             	mov    %rdx,%r12
    27cc:	eb 17                	jmp    27e5 <rio_read+0x2c>
    27ce:	e8 8d ea ff ff       	callq  1260 <__errno_location@plt>
    27d3:	83 38 04             	cmpl   $0x4,(%rax)
    27d6:	74 0d                	je     27e5 <rio_read+0x2c>
    27d8:	48 c7 c0 ff ff ff ff 	mov    $0xffffffffffffffff,%rax
    27df:	eb 54                	jmp    2835 <rio_read+0x7c>
    27e1:	48 89 6b 08          	mov    %rbp,0x8(%rbx)
    27e5:	8b 6b 04             	mov    0x4(%rbx),%ebp
    27e8:	85 ed                	test   %ebp,%ebp
    27ea:	7f 23                	jg     280f <rio_read+0x56>
    27ec:	48 8d 6b 10          	lea    0x10(%rbx),%rbp
    27f0:	8b 3b                	mov    (%rbx),%edi
    27f2:	ba 00 20 00 00       	mov    $0x2000,%edx
    27f7:	48 89 ee             	mov    %rbp,%rsi
    27fa:	e8 11 eb ff ff       	callq  1310 <read@plt>
    27ff:	89 43 04             	mov    %eax,0x4(%rbx)
    2802:	85 c0                	test   %eax,%eax
    2804:	78 c8                	js     27ce <rio_read+0x15>
    2806:	75 d9                	jne    27e1 <rio_read+0x28>
    2808:	b8 00 00 00 00       	mov    $0x0,%eax
    280d:	eb 26                	jmp    2835 <rio_read+0x7c>
    280f:	89 e8                	mov    %ebp,%eax
    2811:	4c 39 e0             	cmp    %r12,%rax
    2814:	72 03                	jb     2819 <rio_read+0x60>
    2816:	44 89 e5             	mov    %r12d,%ebp
    2819:	4c 63 e5             	movslq %ebp,%r12
    281c:	48 8b 73 08          	mov    0x8(%rbx),%rsi
    2820:	4c 89 e2             	mov    %r12,%rdx
    2823:	4c 89 ef             	mov    %r13,%rdi
    2826:	e8 35 eb ff ff       	callq  1360 <memcpy@plt>
    282b:	4c 01 63 08          	add    %r12,0x8(%rbx)
    282f:	29 6b 04             	sub    %ebp,0x4(%rbx)
    2832:	4c 89 e0             	mov    %r12,%rax
    2835:	48 83 c4 08          	add    $0x8,%rsp
    2839:	5b                   	pop    %rbx
    283a:	5d                   	pop    %rbp
    283b:	41 5c                	pop    %r12
    283d:	41 5d                	pop    %r13
    283f:	c3                   	retq   

0000000000002840 <rio_readlineb>:
    2840:	41 55                	push   %r13
    2842:	41 54                	push   %r12
    2844:	55                   	push   %rbp
    2845:	53                   	push   %rbx
    2846:	48 83 ec 18          	sub    $0x18,%rsp
    284a:	49 89 fd             	mov    %rdi,%r13
    284d:	48 89 f5             	mov    %rsi,%rbp
    2850:	49 89 d4             	mov    %rdx,%r12
    2853:	64 48 8b 04 25 28 00 	mov    %fs:0x28,%rax
    285a:	00 00 
    285c:	48 89 44 24 08       	mov    %rax,0x8(%rsp)
    2861:	31 c0                	xor    %eax,%eax
    2863:	bb 01 00 00 00       	mov    $0x1,%ebx
    2868:	eb 18                	jmp    2882 <rio_readlineb+0x42>
    286a:	85 c0                	test   %eax,%eax
    286c:	75 65                	jne    28d3 <rio_readlineb+0x93>
    286e:	48 83 fb 01          	cmp    $0x1,%rbx
    2872:	75 3d                	jne    28b1 <rio_readlineb+0x71>
    2874:	b8 00 00 00 00       	mov    $0x0,%eax
    2879:	eb 3d                	jmp    28b8 <rio_readlineb+0x78>
    287b:	48 83 c3 01          	add    $0x1,%rbx
    287f:	48 89 d5             	mov    %rdx,%rbp
    2882:	4c 39 e3             	cmp    %r12,%rbx
    2885:	73 2a                	jae    28b1 <rio_readlineb+0x71>
    2887:	48 8d 74 24 07       	lea    0x7(%rsp),%rsi
    288c:	ba 01 00 00 00       	mov    $0x1,%edx
    2891:	4c 89 ef             	mov    %r13,%rdi
    2894:	e8 20 ff ff ff       	callq  27b9 <rio_read>
    2899:	83 f8 01             	cmp    $0x1,%eax
    289c:	75 cc                	jne    286a <rio_readlineb+0x2a>
    289e:	48 8d 55 01          	lea    0x1(%rbp),%rdx
    28a2:	0f b6 44 24 07       	movzbl 0x7(%rsp),%eax
    28a7:	88 45 00             	mov    %al,0x0(%rbp)
    28aa:	3c 0a                	cmp    $0xa,%al
    28ac:	75 cd                	jne    287b <rio_readlineb+0x3b>
    28ae:	48 89 d5             	mov    %rdx,%rbp
    28b1:	c6 45 00 00          	movb   $0x0,0x0(%rbp)
    28b5:	48 89 d8             	mov    %rbx,%rax
    28b8:	48 8b 4c 24 08       	mov    0x8(%rsp),%rcx
    28bd:	64 48 33 0c 25 28 00 	xor    %fs:0x28,%rcx
    28c4:	00 00 
    28c6:	75 14                	jne    28dc <rio_readlineb+0x9c>
    28c8:	48 83 c4 18          	add    $0x18,%rsp
    28cc:	5b                   	pop    %rbx
    28cd:	5d                   	pop    %rbp
    28ce:	41 5c                	pop    %r12
    28d0:	41 5d                	pop    %r13
    28d2:	c3                   	retq   
    28d3:	48 c7 c0 ff ff ff ff 	mov    $0xffffffffffffffff,%rax
    28da:	eb dc                	jmp    28b8 <rio_readlineb+0x78>
    28dc:	e8 df e9 ff ff       	callq  12c0 <__stack_chk_fail@plt>

00000000000028e1 <urlencode>:
    28e1:	41 54                	push   %r12
    28e3:	55                   	push   %rbp
    28e4:	53                   	push   %rbx
    28e5:	48 83 ec 10          	sub    $0x10,%rsp
    28e9:	48 89 fb             	mov    %rdi,%rbx
    28ec:	48 89 f5             	mov    %rsi,%rbp
    28ef:	64 48 8b 04 25 28 00 	mov    %fs:0x28,%rax
    28f6:	00 00 
    28f8:	48 89 44 24 08       	mov    %rax,0x8(%rsp)
    28fd:	31 c0                	xor    %eax,%eax
    28ff:	48 c7 c1 ff ff ff ff 	mov    $0xffffffffffffffff,%rcx
    2906:	f2 ae                	repnz scas %es:(%rdi),%al
    2908:	48 f7 d1             	not    %rcx
    290b:	8d 41 ff             	lea    -0x1(%rcx),%eax
    290e:	eb 0f                	jmp    291f <urlencode+0x3e>
    2910:	44 88 45 00          	mov    %r8b,0x0(%rbp)
    2914:	48 8d 6d 01          	lea    0x1(%rbp),%rbp
    2918:	48 83 c3 01          	add    $0x1,%rbx
    291c:	44 89 e0             	mov    %r12d,%eax
    291f:	44 8d 60 ff          	lea    -0x1(%rax),%r12d
    2923:	85 c0                	test   %eax,%eax
    2925:	0f 84 a8 00 00 00    	je     29d3 <urlencode+0xf2>
    292b:	44 0f b6 03          	movzbl (%rbx),%r8d
    292f:	41 80 f8 2a          	cmp    $0x2a,%r8b
    2933:	0f 94 c2             	sete   %dl
    2936:	41 80 f8 2d          	cmp    $0x2d,%r8b
    293a:	0f 94 c0             	sete   %al
    293d:	08 c2                	or     %al,%dl
    293f:	75 cf                	jne    2910 <urlencode+0x2f>
    2941:	41 80 f8 2e          	cmp    $0x2e,%r8b
    2945:	74 c9                	je     2910 <urlencode+0x2f>
    2947:	41 80 f8 5f          	cmp    $0x5f,%r8b
    294b:	74 c3                	je     2910 <urlencode+0x2f>
    294d:	41 8d 40 d0          	lea    -0x30(%r8),%eax
    2951:	3c 09                	cmp    $0x9,%al
    2953:	76 bb                	jbe    2910 <urlencode+0x2f>
    2955:	41 8d 40 bf          	lea    -0x41(%r8),%eax
    2959:	3c 19                	cmp    $0x19,%al
    295b:	76 b3                	jbe    2910 <urlencode+0x2f>
    295d:	41 8d 40 9f          	lea    -0x61(%r8),%eax
    2961:	3c 19                	cmp    $0x19,%al
    2963:	76 ab                	jbe    2910 <urlencode+0x2f>
    2965:	41 80 f8 20          	cmp    $0x20,%r8b
    2969:	74 56                	je     29c1 <urlencode+0xe0>
    296b:	41 8d 40 e0          	lea    -0x20(%r8),%eax
    296f:	3c 5f                	cmp    $0x5f,%al
    2971:	0f 96 c2             	setbe  %dl
    2974:	41 80 f8 09          	cmp    $0x9,%r8b
    2978:	0f 94 c0             	sete   %al
    297b:	08 c2                	or     %al,%dl
    297d:	74 4f                	je     29ce <urlencode+0xed>
    297f:	48 89 e7             	mov    %rsp,%rdi
    2982:	45 0f b6 c0          	movzbl %r8b,%r8d
    2986:	48 8d 0d d8 1d 00 00 	lea    0x1dd8(%rip),%rcx        # 4765 <trans_char+0xa5>
    298d:	ba 08 00 00 00       	mov    $0x8,%edx
    2992:	be 01 00 00 00       	mov    $0x1,%esi
    2997:	b8 00 00 00 00       	mov    $0x0,%eax
    299c:	e8 9f ea ff ff       	callq  1440 <__sprintf_chk@plt>
    29a1:	0f b6 04 24          	movzbl (%rsp),%eax
    29a5:	88 45 00             	mov    %al,0x0(%rbp)
    29a8:	0f b6 44 24 01       	movzbl 0x1(%rsp),%eax
    29ad:	88 45 01             	mov    %al,0x1(%rbp)
    29b0:	0f b6 44 24 02       	movzbl 0x2(%rsp),%eax
    29b5:	88 45 02             	mov    %al,0x2(%rbp)
    29b8:	48 8d 6d 03          	lea    0x3(%rbp),%rbp
    29bc:	e9 57 ff ff ff       	jmpq   2918 <urlencode+0x37>
    29c1:	c6 45 00 2b          	movb   $0x2b,0x0(%rbp)
    29c5:	48 8d 6d 01          	lea    0x1(%rbp),%rbp
    29c9:	e9 4a ff ff ff       	jmpq   2918 <urlencode+0x37>
    29ce:	b8 ff ff ff ff       	mov    $0xffffffff,%eax
    29d3:	48 8b 74 24 08       	mov    0x8(%rsp),%rsi
    29d8:	64 48 33 34 25 28 00 	xor    %fs:0x28,%rsi
    29df:	00 00 
    29e1:	75 09                	jne    29ec <urlencode+0x10b>
    29e3:	48 83 c4 10          	add    $0x10,%rsp
    29e7:	5b                   	pop    %rbx
    29e8:	5d                   	pop    %rbp
    29e9:	41 5c                	pop    %r12
    29eb:	c3                   	retq   
    29ec:	e8 cf e8 ff ff       	callq  12c0 <__stack_chk_fail@plt>

00000000000029f1 <submitr>:
    29f1:	f3 0f 1e fa          	endbr64 
    29f5:	41 57                	push   %r15
    29f7:	41 56                	push   %r14
    29f9:	41 55                	push   %r13
    29fb:	41 54                	push   %r12
    29fd:	55                   	push   %rbp
    29fe:	53                   	push   %rbx
    29ff:	4c 8d 9c 24 00 60 ff 	lea    -0xa000(%rsp),%r11
    2a06:	ff 
    2a07:	48 81 ec 00 10 00 00 	sub    $0x1000,%rsp
    2a0e:	48 83 0c 24 00       	orq    $0x0,(%rsp)
    2a13:	4c 39 dc             	cmp    %r11,%rsp
    2a16:	75 ef                	jne    2a07 <submitr+0x16>
    2a18:	48 83 ec 68          	sub    $0x68,%rsp
    2a1c:	49 89 fc             	mov    %rdi,%r12
    2a1f:	89 74 24 14          	mov    %esi,0x14(%rsp)
    2a23:	49 89 d6             	mov    %rdx,%r14
    2a26:	48 89 4c 24 08       	mov    %rcx,0x8(%rsp)
    2a2b:	4c 89 44 24 18       	mov    %r8,0x18(%rsp)
    2a30:	4d 89 cd             	mov    %r9,%r13
    2a33:	48 8b ac 24 a0 a0 00 	mov    0xa0a0(%rsp),%rbp
    2a3a:	00 
    2a3b:	64 48 8b 04 25 28 00 	mov    %fs:0x28,%rax
    2a42:	00 00 
    2a44:	48 89 84 24 58 a0 00 	mov    %rax,0xa058(%rsp)
    2a4b:	00 
    2a4c:	31 c0                	xor    %eax,%eax
    2a4e:	c7 44 24 2c 00 00 00 	movl   $0x0,0x2c(%rsp)
    2a55:	00 
    2a56:	ba 00 00 00 00       	mov    $0x0,%edx
    2a5b:	be 01 00 00 00       	mov    $0x1,%esi
    2a60:	bf 02 00 00 00       	mov    $0x2,%edi
    2a65:	e8 e6 e9 ff ff       	callq  1450 <socket@plt>
    2a6a:	85 c0                	test   %eax,%eax
    2a6c:	0f 88 a0 02 00 00    	js     2d12 <submitr+0x321>
    2a72:	89 c3                	mov    %eax,%ebx
    2a74:	4c 89 e7             	mov    %r12,%rdi
    2a77:	e8 b4 e8 ff ff       	callq  1330 <gethostbyname@plt>
    2a7c:	48 85 c0             	test   %rax,%rax
    2a7f:	0f 84 d9 02 00 00    	je     2d5e <submitr+0x36d>
    2a85:	4c 8d 7c 24 30       	lea    0x30(%rsp),%r15
    2a8a:	48 c7 44 24 30 00 00 	movq   $0x0,0x30(%rsp)
    2a91:	00 00 
    2a93:	48 c7 44 24 38 00 00 	movq   $0x0,0x38(%rsp)
    2a9a:	00 00 
    2a9c:	66 c7 44 24 30 02 00 	movw   $0x2,0x30(%rsp)
    2aa3:	48 63 50 14          	movslq 0x14(%rax),%rdx
    2aa7:	48 8b 40 18          	mov    0x18(%rax),%rax
    2aab:	48 8b 30             	mov    (%rax),%rsi
    2aae:	48 8d 7c 24 34       	lea    0x34(%rsp),%rdi
    2ab3:	b9 0c 00 00 00       	mov    $0xc,%ecx
    2ab8:	e8 83 e8 ff ff       	callq  1340 <__memmove_chk@plt>
    2abd:	0f b7 74 24 14       	movzwl 0x14(%rsp),%esi
    2ac2:	66 c1 c6 08          	rol    $0x8,%si
    2ac6:	66 89 74 24 32       	mov    %si,0x32(%rsp)
    2acb:	ba 10 00 00 00       	mov    $0x10,%edx
    2ad0:	4c 89 fe             	mov    %r15,%rsi
    2ad3:	89 df                	mov    %ebx,%edi
    2ad5:	e8 36 e9 ff ff       	callq  1410 <connect@plt>
    2ada:	85 c0                	test   %eax,%eax
    2adc:	0f 88 e4 02 00 00    	js     2dc6 <submitr+0x3d5>
    2ae2:	49 c7 c0 ff ff ff ff 	mov    $0xffffffffffffffff,%r8
    2ae9:	b8 00 00 00 00       	mov    $0x0,%eax
    2aee:	4c 89 c1             	mov    %r8,%rcx
    2af1:	4c 89 ef             	mov    %r13,%rdi
    2af4:	f2 ae                	repnz scas %es:(%rdi),%al
    2af6:	48 89 ca             	mov    %rcx,%rdx
    2af9:	48 f7 d2             	not    %rdx
    2afc:	4c 89 c1             	mov    %r8,%rcx
    2aff:	4c 89 f7             	mov    %r14,%rdi
    2b02:	f2 ae                	repnz scas %es:(%rdi),%al
    2b04:	48 f7 d1             	not    %rcx
    2b07:	48 89 ce             	mov    %rcx,%rsi
    2b0a:	4c 89 c1             	mov    %r8,%rcx
    2b0d:	48 8b 7c 24 08       	mov    0x8(%rsp),%rdi
    2b12:	f2 ae                	repnz scas %es:(%rdi),%al
    2b14:	48 f7 d1             	not    %rcx
    2b17:	48 8d 74 0e fe       	lea    -0x2(%rsi,%rcx,1),%rsi
    2b1c:	4c 89 c1             	mov    %r8,%rcx
    2b1f:	48 8b 7c 24 18       	mov    0x18(%rsp),%rdi
    2b24:	f2 ae                	repnz scas %es:(%rdi),%al
    2b26:	48 89 c8             	mov    %rcx,%rax
    2b29:	48 f7 d0             	not    %rax
    2b2c:	48 8d 4c 06 ff       	lea    -0x1(%rsi,%rax,1),%rcx
    2b31:	48 8d 44 52 fd       	lea    -0x3(%rdx,%rdx,2),%rax
    2b36:	48 8d 84 01 80 00 00 	lea    0x80(%rcx,%rax,1),%rax
    2b3d:	00 
    2b3e:	48 3d 00 20 00 00    	cmp    $0x2000,%rax
    2b44:	0f 87 d6 02 00 00    	ja     2e20 <submitr+0x42f>
    2b4a:	48 8d b4 24 50 40 00 	lea    0x4050(%rsp),%rsi
    2b51:	00 
    2b52:	b9 00 04 00 00       	mov    $0x400,%ecx
    2b57:	b8 00 00 00 00       	mov    $0x0,%eax
    2b5c:	48 89 f7             	mov    %rsi,%rdi
    2b5f:	f3 48 ab             	rep stos %rax,%es:(%rdi)
    2b62:	4c 89 ef             	mov    %r13,%rdi
    2b65:	e8 77 fd ff ff       	callq  28e1 <urlencode>
    2b6a:	85 c0                	test   %eax,%eax
    2b6c:	0f 88 21 03 00 00    	js     2e93 <submitr+0x4a2>
    2b72:	4c 8d bc 24 50 20 00 	lea    0x2050(%rsp),%r15
    2b79:	00 
    2b7a:	41 54                	push   %r12
    2b7c:	48 8d 84 24 58 40 00 	lea    0x4058(%rsp),%rax
    2b83:	00 
    2b84:	50                   	push   %rax
    2b85:	4d 89 f1             	mov    %r14,%r9
    2b88:	4c 8b 44 24 18       	mov    0x18(%rsp),%r8
    2b8d:	48 8d 0d 64 1b 00 00 	lea    0x1b64(%rip),%rcx        # 46f8 <trans_char+0x38>
    2b94:	ba 00 20 00 00       	mov    $0x2000,%edx
    2b99:	be 01 00 00 00       	mov    $0x1,%esi
    2b9e:	4c 89 ff             	mov    %r15,%rdi
    2ba1:	b8 00 00 00 00       	mov    $0x0,%eax
    2ba6:	e8 95 e8 ff ff       	callq  1440 <__sprintf_chk@plt>
    2bab:	48 c7 c1 ff ff ff ff 	mov    $0xffffffffffffffff,%rcx
    2bb2:	b8 00 00 00 00       	mov    $0x0,%eax
    2bb7:	4c 89 ff             	mov    %r15,%rdi
    2bba:	f2 ae                	repnz scas %es:(%rdi),%al
    2bbc:	48 f7 d1             	not    %rcx
    2bbf:	48 8d 51 ff          	lea    -0x1(%rcx),%rdx
    2bc3:	4c 89 fe             	mov    %r15,%rsi
    2bc6:	89 df                	mov    %ebx,%edi
    2bc8:	e8 8e fb ff ff       	callq  275b <rio_writen>
    2bcd:	48 83 c4 10          	add    $0x10,%rsp
    2bd1:	48 85 c0             	test   %rax,%rax
    2bd4:	0f 88 44 03 00 00    	js     2f1e <submitr+0x52d>
    2bda:	4c 8d 64 24 40       	lea    0x40(%rsp),%r12
    2bdf:	89 de                	mov    %ebx,%esi
    2be1:	4c 89 e7             	mov    %r12,%rdi
    2be4:	e8 2a fb ff ff       	callq  2713 <rio_readinitb>
    2be9:	48 8d b4 24 50 20 00 	lea    0x2050(%rsp),%rsi
    2bf0:	00 
    2bf1:	ba 00 20 00 00       	mov    $0x2000,%edx
    2bf6:	4c 89 e7             	mov    %r12,%rdi
    2bf9:	e8 42 fc ff ff       	callq  2840 <rio_readlineb>
    2bfe:	48 85 c0             	test   %rax,%rax
    2c01:	0f 8e 86 03 00 00    	jle    2f8d <submitr+0x59c>
    2c07:	48 8d 4c 24 2c       	lea    0x2c(%rsp),%rcx
    2c0c:	48 8d 94 24 50 60 00 	lea    0x6050(%rsp),%rdx
    2c13:	00 
    2c14:	48 8d bc 24 50 20 00 	lea    0x2050(%rsp),%rdi
    2c1b:	00 
    2c1c:	4c 8d 84 24 50 80 00 	lea    0x8050(%rsp),%r8
    2c23:	00 
    2c24:	48 8d 35 41 1b 00 00 	lea    0x1b41(%rip),%rsi        # 476c <trans_char+0xac>
    2c2b:	b8 00 00 00 00       	mov    $0x0,%eax
    2c30:	e8 5b e7 ff ff       	callq  1390 <__isoc99_sscanf@plt>
    2c35:	48 8d b4 24 50 20 00 	lea    0x2050(%rsp),%rsi
    2c3c:	00 
    2c3d:	b9 03 00 00 00       	mov    $0x3,%ecx
    2c42:	48 8d 3d 3a 1b 00 00 	lea    0x1b3a(%rip),%rdi        # 4783 <trans_char+0xc3>
    2c49:	f3 a6                	repz cmpsb %es:(%rdi),%ds:(%rsi)
    2c4b:	0f 97 c0             	seta   %al
    2c4e:	1c 00                	sbb    $0x0,%al
    2c50:	84 c0                	test   %al,%al
    2c52:	0f 84 b3 03 00 00    	je     300b <submitr+0x61a>
    2c58:	48 8d b4 24 50 20 00 	lea    0x2050(%rsp),%rsi
    2c5f:	00 
    2c60:	48 8d 7c 24 40       	lea    0x40(%rsp),%rdi
    2c65:	ba 00 20 00 00       	mov    $0x2000,%edx
    2c6a:	e8 d1 fb ff ff       	callq  2840 <rio_readlineb>
    2c6f:	48 85 c0             	test   %rax,%rax
    2c72:	7f c1                	jg     2c35 <submitr+0x244>
    2c74:	48 b8 45 72 72 6f 72 	movabs $0x43203a726f727245,%rax
    2c7b:	3a 20 43 
    2c7e:	48 ba 6c 69 65 6e 74 	movabs $0x6e7520746e65696c,%rdx
    2c85:	20 75 6e 
    2c88:	48 89 45 00          	mov    %rax,0x0(%rbp)
    2c8c:	48 89 55 08          	mov    %rdx,0x8(%rbp)
    2c90:	48 b8 61 62 6c 65 20 	movabs $0x206f7420656c6261,%rax
    2c97:	74 6f 20 
    2c9a:	48 ba 72 65 61 64 20 	movabs $0x6165682064616572,%rdx
    2ca1:	68 65 61 
    2ca4:	48 89 45 10          	mov    %rax,0x10(%rbp)
    2ca8:	48 89 55 18          	mov    %rdx,0x18(%rbp)
    2cac:	48 b8 64 65 72 73 20 	movabs $0x6f72662073726564,%rax
    2cb3:	66 72 6f 
    2cb6:	48 ba 6d 20 74 68 65 	movabs $0x657220656874206d,%rdx
    2cbd:	20 72 65 
    2cc0:	48 89 45 20          	mov    %rax,0x20(%rbp)
    2cc4:	48 89 55 28          	mov    %rdx,0x28(%rbp)
    2cc8:	48 b8 73 75 6c 74 20 	movabs $0x72657320746c7573,%rax
    2ccf:	73 65 72 
    2cd2:	48 89 45 30          	mov    %rax,0x30(%rbp)
    2cd6:	c7 45 38 76 65 72 00 	movl   $0x726576,0x38(%rbp)
    2cdd:	89 df                	mov    %ebx,%edi
    2cdf:	e8 1c e6 ff ff       	callq  1300 <close@plt>
    2ce4:	b8 ff ff ff ff       	mov    $0xffffffff,%eax
    2ce9:	48 8b 9c 24 58 a0 00 	mov    0xa058(%rsp),%rbx
    2cf0:	00 
    2cf1:	64 48 33 1c 25 28 00 	xor    %fs:0x28,%rbx
    2cf8:	00 00 
    2cfa:	0f 85 7e 04 00 00    	jne    317e <submitr+0x78d>
    2d00:	48 81 c4 68 a0 00 00 	add    $0xa068,%rsp
    2d07:	5b                   	pop    %rbx
    2d08:	5d                   	pop    %rbp
    2d09:	41 5c                	pop    %r12
    2d0b:	41 5d                	pop    %r13
    2d0d:	41 5e                	pop    %r14
    2d0f:	41 5f                	pop    %r15
    2d11:	c3                   	retq   
    2d12:	48 b8 45 72 72 6f 72 	movabs $0x43203a726f727245,%rax
    2d19:	3a 20 43 
    2d1c:	48 ba 6c 69 65 6e 74 	movabs $0x6e7520746e65696c,%rdx
    2d23:	20 75 6e 
    2d26:	48 89 45 00          	mov    %rax,0x0(%rbp)
    2d2a:	48 89 55 08          	mov    %rdx,0x8(%rbp)
    2d2e:	48 b8 61 62 6c 65 20 	movabs $0x206f7420656c6261,%rax
    2d35:	74 6f 20 
    2d38:	48 ba 63 72 65 61 74 	movabs $0x7320657461657263,%rdx
    2d3f:	65 20 73 
    2d42:	48 89 45 10          	mov    %rax,0x10(%rbp)
    2d46:	48 89 55 18          	mov    %rdx,0x18(%rbp)
    2d4a:	c7 45 20 6f 63 6b 65 	movl   $0x656b636f,0x20(%rbp)
    2d51:	66 c7 45 24 74 00    	movw   $0x74,0x24(%rbp)
    2d57:	b8 ff ff ff ff       	mov    $0xffffffff,%eax
    2d5c:	eb 8b                	jmp    2ce9 <submitr+0x2f8>
    2d5e:	48 b8 45 72 72 6f 72 	movabs $0x44203a726f727245,%rax
    2d65:	3a 20 44 
    2d68:	48 ba 4e 53 20 69 73 	movabs $0x6e7520736920534e,%rdx
    2d6f:	20 75 6e 
    2d72:	48 89 45 00          	mov    %rax,0x0(%rbp)
    2d76:	48 89 55 08          	mov    %rdx,0x8(%rbp)
    2d7a:	48 b8 61 62 6c 65 20 	movabs $0x206f7420656c6261,%rax
    2d81:	74 6f 20 
    2d84:	48 ba 72 65 73 6f 6c 	movabs $0x2065766c6f736572,%rdx
    2d8b:	76 65 20 
    2d8e:	48 89 45 10          	mov    %rax,0x10(%rbp)
    2d92:	48 89 55 18          	mov    %rdx,0x18(%rbp)
    2d96:	48 b8 73 65 72 76 65 	movabs $0x6120726576726573,%rax
    2d9d:	72 20 61 
    2da0:	48 89 45 20          	mov    %rax,0x20(%rbp)
    2da4:	c7 45 28 64 64 72 65 	movl   $0x65726464,0x28(%rbp)
    2dab:	66 c7 45 2c 73 73    	movw   $0x7373,0x2c(%rbp)
    2db1:	c6 45 2e 00          	movb   $0x0,0x2e(%rbp)
    2db5:	89 df                	mov    %ebx,%edi
    2db7:	e8 44 e5 ff ff       	callq  1300 <close@plt>
    2dbc:	b8 ff ff ff ff       	mov    $0xffffffff,%eax
    2dc1:	e9 23 ff ff ff       	jmpq   2ce9 <submitr+0x2f8>
    2dc6:	48 b8 45 72 72 6f 72 	movabs $0x55203a726f727245,%rax
    2dcd:	3a 20 55 
    2dd0:	48 ba 6e 61 62 6c 65 	movabs $0x6f7420656c62616e,%rdx
    2dd7:	20 74 6f 
    2dda:	48 89 45 00          	mov    %rax,0x0(%rbp)
    2dde:	48 89 55 08          	mov    %rdx,0x8(%rbp)
    2de2:	48 b8 20 63 6f 6e 6e 	movabs $0x7463656e6e6f6320,%rax
    2de9:	65 63 74 
    2dec:	48 ba 20 74 6f 20 74 	movabs $0x20656874206f7420,%rdx
    2df3:	68 65 20 
    2df6:	48 89 45 10          	mov    %rax,0x10(%rbp)
    2dfa:	48 89 55 18          	mov    %rdx,0x18(%rbp)
    2dfe:	c7 45 20 73 65 72 76 	movl   $0x76726573,0x20(%rbp)
    2e05:	66 c7 45 24 65 72    	movw   $0x7265,0x24(%rbp)
    2e0b:	c6 45 26 00          	movb   $0x0,0x26(%rbp)
    2e0f:	89 df                	mov    %ebx,%edi
    2e11:	e8 ea e4 ff ff       	callq  1300 <close@plt>
    2e16:	b8 ff ff ff ff       	mov    $0xffffffff,%eax
    2e1b:	e9 c9 fe ff ff       	jmpq   2ce9 <submitr+0x2f8>
    2e20:	48 b8 45 72 72 6f 72 	movabs $0x52203a726f727245,%rax
    2e27:	3a 20 52 
    2e2a:	48 ba 65 73 75 6c 74 	movabs $0x747320746c757365,%rdx
    2e31:	20 73 74 
    2e34:	48 89 45 00          	mov    %rax,0x0(%rbp)
    2e38:	48 89 55 08          	mov    %rdx,0x8(%rbp)
    2e3c:	48 b8 72 69 6e 67 20 	movabs $0x6f6f7420676e6972,%rax
    2e43:	74 6f 6f 
    2e46:	48 ba 20 6c 61 72 67 	movabs $0x202e656772616c20,%rdx
    2e4d:	65 2e 20 
    2e50:	48 89 45 10          	mov    %rax,0x10(%rbp)
    2e54:	48 89 55 18          	mov    %rdx,0x18(%rbp)
    2e58:	48 b8 49 6e 63 72 65 	movabs $0x6573616572636e49,%rax
    2e5f:	61 73 65 
    2e62:	48 ba 20 53 55 42 4d 	movabs $0x5254494d42555320,%rdx
    2e69:	49 54 52 
    2e6c:	48 89 45 20          	mov    %rax,0x20(%rbp)
    2e70:	48 89 55 28          	mov    %rdx,0x28(%rbp)
    2e74:	48 b8 5f 4d 41 58 42 	movabs $0x46554258414d5f,%rax
    2e7b:	55 46 00 
    2e7e:	48 89 45 30          	mov    %rax,0x30(%rbp)
    2e82:	89 df                	mov    %ebx,%edi
    2e84:	e8 77 e4 ff ff       	callq  1300 <close@plt>
    2e89:	b8 ff ff ff ff       	mov    $0xffffffff,%eax
    2e8e:	e9 56 fe ff ff       	jmpq   2ce9 <submitr+0x2f8>
    2e93:	48 b8 45 72 72 6f 72 	movabs $0x52203a726f727245,%rax
    2e9a:	3a 20 52 
    2e9d:	48 ba 65 73 75 6c 74 	movabs $0x747320746c757365,%rdx
    2ea4:	20 73 74 
    2ea7:	48 89 45 00          	mov    %rax,0x0(%rbp)
    2eab:	48 89 55 08          	mov    %rdx,0x8(%rbp)
    2eaf:	48 b8 72 69 6e 67 20 	movabs $0x6e6f6320676e6972,%rax
    2eb6:	63 6f 6e 
    2eb9:	48 ba 74 61 69 6e 73 	movabs $0x6e6120736e696174,%rdx
    2ec0:	20 61 6e 
    2ec3:	48 89 45 10          	mov    %rax,0x10(%rbp)
    2ec7:	48 89 55 18          	mov    %rdx,0x18(%rbp)
    2ecb:	48 b8 20 69 6c 6c 65 	movabs $0x6c6167656c6c6920,%rax
    2ed2:	67 61 6c 
    2ed5:	48 ba 20 6f 72 20 75 	movabs $0x72706e7520726f20,%rdx
    2edc:	6e 70 72 
    2edf:	48 89 45 20          	mov    %rax,0x20(%rbp)
    2ee3:	48 89 55 28          	mov    %rdx,0x28(%rbp)
    2ee7:	48 b8 69 6e 74 61 62 	movabs $0x20656c6261746e69,%rax
    2eee:	6c 65 20 
    2ef1:	48 ba 63 68 61 72 61 	movabs $0x6574636172616863,%rdx
    2ef8:	63 74 65 
    2efb:	48 89 45 30          	mov    %rax,0x30(%rbp)
    2eff:	48 89 55 38          	mov    %rdx,0x38(%rbp)
    2f03:	66 c7 45 40 72 2e    	movw   $0x2e72,0x40(%rbp)
    2f09:	c6 45 42 00          	movb   $0x0,0x42(%rbp)
    2f0d:	89 df                	mov    %ebx,%edi
    2f0f:	e8 ec e3 ff ff       	callq  1300 <close@plt>
    2f14:	b8 ff ff ff ff       	mov    $0xffffffff,%eax
    2f19:	e9 cb fd ff ff       	jmpq   2ce9 <submitr+0x2f8>
    2f1e:	48 b8 45 72 72 6f 72 	movabs $0x43203a726f727245,%rax
    2f25:	3a 20 43 
    2f28:	48 ba 6c 69 65 6e 74 	movabs $0x6e7520746e65696c,%rdx
    2f2f:	20 75 6e 
    2f32:	48 89 45 00          	mov    %rax,0x0(%rbp)
    2f36:	48 89 55 08          	mov    %rdx,0x8(%rbp)
    2f3a:	48 b8 61 62 6c 65 20 	movabs $0x206f7420656c6261,%rax
    2f41:	74 6f 20 
    2f44:	48 ba 77 72 69 74 65 	movabs $0x6f74206574697277,%rdx
    2f4b:	20 74 6f 
    2f4e:	48 89 45 10          	mov    %rax,0x10(%rbp)
    2f52:	48 89 55 18          	mov    %rdx,0x18(%rbp)
    2f56:	48 b8 20 74 68 65 20 	movabs $0x7365722065687420,%rax
    2f5d:	72 65 73 
    2f60:	48 ba 75 6c 74 20 73 	movabs $0x7672657320746c75,%rdx
    2f67:	65 72 76 
    2f6a:	48 89 45 20          	mov    %rax,0x20(%rbp)
    2f6e:	48 89 55 28          	mov    %rdx,0x28(%rbp)
    2f72:	66 c7 45 30 65 72    	movw   $0x7265,0x30(%rbp)
    2f78:	c6 45 32 00          	movb   $0x0,0x32(%rbp)
    2f7c:	89 df                	mov    %ebx,%edi
    2f7e:	e8 7d e3 ff ff       	callq  1300 <close@plt>
    2f83:	b8 ff ff ff ff       	mov    $0xffffffff,%eax
    2f88:	e9 5c fd ff ff       	jmpq   2ce9 <submitr+0x2f8>
    2f8d:	48 b8 45 72 72 6f 72 	movabs $0x43203a726f727245,%rax
    2f94:	3a 20 43 
    2f97:	48 ba 6c 69 65 6e 74 	movabs $0x6e7520746e65696c,%rdx
    2f9e:	20 75 6e 
    2fa1:	48 89 45 00          	mov    %rax,0x0(%rbp)
    2fa5:	48 89 55 08          	mov    %rdx,0x8(%rbp)
    2fa9:	48 b8 61 62 6c 65 20 	movabs $0x206f7420656c6261,%rax
    2fb0:	74 6f 20 
    2fb3:	48 ba 72 65 61 64 20 	movabs $0x7269662064616572,%rdx
    2fba:	66 69 72 
    2fbd:	48 89 45 10          	mov    %rax,0x10(%rbp)
    2fc1:	48 89 55 18          	mov    %rdx,0x18(%rbp)
    2fc5:	48 b8 73 74 20 68 65 	movabs $0x6564616568207473,%rax
    2fcc:	61 64 65 
    2fcf:	48 ba 72 20 66 72 6f 	movabs $0x72206d6f72662072,%rdx
    2fd6:	6d 20 72 
    2fd9:	48 89 45 20          	mov    %rax,0x20(%rbp)
    2fdd:	48 89 55 28          	mov    %rdx,0x28(%rbp)
    2fe1:	48 b8 65 73 75 6c 74 	movabs $0x657320746c757365,%rax
    2fe8:	20 73 65 
    2feb:	48 89 45 30          	mov    %rax,0x30(%rbp)
    2fef:	c7 45 38 72 76 65 72 	movl   $0x72657672,0x38(%rbp)
    2ff6:	c6 45 3c 00          	movb   $0x0,0x3c(%rbp)
    2ffa:	89 df                	mov    %ebx,%edi
    2ffc:	e8 ff e2 ff ff       	callq  1300 <close@plt>
    3001:	b8 ff ff ff ff       	mov    $0xffffffff,%eax
    3006:	e9 de fc ff ff       	jmpq   2ce9 <submitr+0x2f8>
    300b:	48 8d b4 24 50 20 00 	lea    0x2050(%rsp),%rsi
    3012:	00 
    3013:	48 8d 7c 24 40       	lea    0x40(%rsp),%rdi
    3018:	ba 00 20 00 00       	mov    $0x2000,%edx
    301d:	e8 1e f8 ff ff       	callq  2840 <rio_readlineb>
    3022:	48 85 c0             	test   %rax,%rax
    3025:	0f 8e 96 00 00 00    	jle    30c1 <submitr+0x6d0>
    302b:	44 8b 44 24 2c       	mov    0x2c(%rsp),%r8d
    3030:	41 81 f8 c8 00 00 00 	cmp    $0xc8,%r8d
    3037:	0f 85 08 01 00 00    	jne    3145 <submitr+0x754>
    303d:	48 8d b4 24 50 20 00 	lea    0x2050(%rsp),%rsi
    3044:	00 
    3045:	48 89 ef             	mov    %rbp,%rdi
    3048:	e8 43 e2 ff ff       	callq  1290 <strcpy@plt>
    304d:	89 df                	mov    %ebx,%edi
    304f:	e8 ac e2 ff ff       	callq  1300 <close@plt>
    3054:	b9 04 00 00 00       	mov    $0x4,%ecx
    3059:	48 8d 3d 1d 17 00 00 	lea    0x171d(%rip),%rdi        # 477d <trans_char+0xbd>
    3060:	48 89 ee             	mov    %rbp,%rsi
    3063:	f3 a6                	repz cmpsb %es:(%rdi),%ds:(%rsi)
    3065:	0f 97 c0             	seta   %al
    3068:	1c 00                	sbb    $0x0,%al
    306a:	0f be c0             	movsbl %al,%eax
    306d:	85 c0                	test   %eax,%eax
    306f:	0f 84 74 fc ff ff    	je     2ce9 <submitr+0x2f8>
    3075:	b9 05 00 00 00       	mov    $0x5,%ecx
    307a:	48 8d 3d 00 17 00 00 	lea    0x1700(%rip),%rdi        # 4781 <trans_char+0xc1>
    3081:	48 89 ee             	mov    %rbp,%rsi
    3084:	f3 a6                	repz cmpsb %es:(%rdi),%ds:(%rsi)
    3086:	0f 97 c0             	seta   %al
    3089:	1c 00                	sbb    $0x0,%al
    308b:	0f be c0             	movsbl %al,%eax
    308e:	85 c0                	test   %eax,%eax
    3090:	0f 84 53 fc ff ff    	je     2ce9 <submitr+0x2f8>
    3096:	b9 03 00 00 00       	mov    $0x3,%ecx
    309b:	48 8d 3d e4 16 00 00 	lea    0x16e4(%rip),%rdi        # 4786 <trans_char+0xc6>
    30a2:	48 89 ee             	mov    %rbp,%rsi
    30a5:	f3 a6                	repz cmpsb %es:(%rdi),%ds:(%rsi)
    30a7:	0f 97 c0             	seta   %al
    30aa:	1c 00                	sbb    $0x0,%al
    30ac:	0f be c0             	movsbl %al,%eax
    30af:	85 c0                	test   %eax,%eax
    30b1:	0f 84 32 fc ff ff    	je     2ce9 <submitr+0x2f8>
    30b7:	b8 ff ff ff ff       	mov    $0xffffffff,%eax
    30bc:	e9 28 fc ff ff       	jmpq   2ce9 <submitr+0x2f8>
    30c1:	48 b8 45 72 72 6f 72 	movabs $0x43203a726f727245,%rax
    30c8:	3a 20 43 
    30cb:	48 ba 6c 69 65 6e 74 	movabs $0x6e7520746e65696c,%rdx
    30d2:	20 75 6e 
    30d5:	48 89 45 00          	mov    %rax,0x0(%rbp)
    30d9:	48 89 55 08          	mov    %rdx,0x8(%rbp)
    30dd:	48 b8 61 62 6c 65 20 	movabs $0x206f7420656c6261,%rax
    30e4:	74 6f 20 
    30e7:	48 ba 72 65 61 64 20 	movabs $0x6174732064616572,%rdx
    30ee:	73 74 61 
    30f1:	48 89 45 10          	mov    %rax,0x10(%rbp)
    30f5:	48 89 55 18          	mov    %rdx,0x18(%rbp)
    30f9:	48 b8 74 75 73 20 6d 	movabs $0x7373656d20737574,%rax
    3100:	65 73 73 
    3103:	48 ba 61 67 65 20 66 	movabs $0x6d6f726620656761,%rdx
    310a:	72 6f 6d 
    310d:	48 89 45 20          	mov    %rax,0x20(%rbp)
    3111:	48 89 55 28          	mov    %rdx,0x28(%rbp)
    3115:	48 b8 20 72 65 73 75 	movabs $0x20746c7573657220,%rax
    311c:	6c 74 20 
    311f:	48 89 45 30          	mov    %rax,0x30(%rbp)
    3123:	c7 45 38 73 65 72 76 	movl   $0x76726573,0x38(%rbp)
    312a:	66 c7 45 3c 65 72    	movw   $0x7265,0x3c(%rbp)
    3130:	c6 45 3e 00          	movb   $0x0,0x3e(%rbp)
    3134:	89 df                	mov    %ebx,%edi
    3136:	e8 c5 e1 ff ff       	callq  1300 <close@plt>
    313b:	b8 ff ff ff ff       	mov    $0xffffffff,%eax
    3140:	e9 a4 fb ff ff       	jmpq   2ce9 <submitr+0x2f8>
    3145:	4c 8d 8c 24 50 80 00 	lea    0x8050(%rsp),%r9
    314c:	00 
    314d:	48 8d 0d e4 15 00 00 	lea    0x15e4(%rip),%rcx        # 4738 <trans_char+0x78>
    3154:	48 c7 c2 ff ff ff ff 	mov    $0xffffffffffffffff,%rdx
    315b:	be 01 00 00 00       	mov    $0x1,%esi
    3160:	48 89 ef             	mov    %rbp,%rdi
    3163:	b8 00 00 00 00       	mov    $0x0,%eax
    3168:	e8 d3 e2 ff ff       	callq  1440 <__sprintf_chk@plt>
    316d:	89 df                	mov    %ebx,%edi
    316f:	e8 8c e1 ff ff       	callq  1300 <close@plt>
    3174:	b8 ff ff ff ff       	mov    $0xffffffff,%eax
    3179:	e9 6b fb ff ff       	jmpq   2ce9 <submitr+0x2f8>
    317e:	e8 3d e1 ff ff       	callq  12c0 <__stack_chk_fail@plt>

0000000000003183 <init_timeout>:
    3183:	f3 0f 1e fa          	endbr64 
    3187:	85 ff                	test   %edi,%edi
    3189:	74 26                	je     31b1 <init_timeout+0x2e>
    318b:	53                   	push   %rbx
    318c:	89 fb                	mov    %edi,%ebx
    318e:	78 1a                	js     31aa <init_timeout+0x27>
    3190:	48 8d 35 8e f5 ff ff 	lea    -0xa72(%rip),%rsi        # 2725 <sigalrm_handler>
    3197:	bf 0e 00 00 00       	mov    $0xe,%edi
    319c:	e8 7f e1 ff ff       	callq  1320 <signal@plt>
    31a1:	89 df                	mov    %ebx,%edi
    31a3:	e8 48 e1 ff ff       	callq  12f0 <alarm@plt>
    31a8:	5b                   	pop    %rbx
    31a9:	c3                   	retq   
    31aa:	bb 00 00 00 00       	mov    $0x0,%ebx
    31af:	eb df                	jmp    3190 <init_timeout+0xd>
    31b1:	c3                   	retq   

00000000000031b2 <init_driver>:
    31b2:	f3 0f 1e fa          	endbr64 
    31b6:	41 54                	push   %r12
    31b8:	55                   	push   %rbp
    31b9:	53                   	push   %rbx
    31ba:	48 83 ec 20          	sub    $0x20,%rsp
    31be:	48 89 fd             	mov    %rdi,%rbp
    31c1:	64 48 8b 04 25 28 00 	mov    %fs:0x28,%rax
    31c8:	00 00 
    31ca:	48 89 44 24 18       	mov    %rax,0x18(%rsp)
    31cf:	31 c0                	xor    %eax,%eax
    31d1:	be 01 00 00 00       	mov    $0x1,%esi
    31d6:	bf 0d 00 00 00       	mov    $0xd,%edi
    31db:	e8 40 e1 ff ff       	callq  1320 <signal@plt>
    31e0:	be 01 00 00 00       	mov    $0x1,%esi
    31e5:	bf 1d 00 00 00       	mov    $0x1d,%edi
    31ea:	e8 31 e1 ff ff       	callq  1320 <signal@plt>
    31ef:	be 01 00 00 00       	mov    $0x1,%esi
    31f4:	bf 1d 00 00 00       	mov    $0x1d,%edi
    31f9:	e8 22 e1 ff ff       	callq  1320 <signal@plt>
    31fe:	ba 00 00 00 00       	mov    $0x0,%edx
    3203:	be 01 00 00 00       	mov    $0x1,%esi
    3208:	bf 02 00 00 00       	mov    $0x2,%edi
    320d:	e8 3e e2 ff ff       	callq  1450 <socket@plt>
    3212:	85 c0                	test   %eax,%eax
    3214:	0f 88 9c 00 00 00    	js     32b6 <init_driver+0x104>
    321a:	89 c3                	mov    %eax,%ebx
    321c:	48 8d 3d 66 15 00 00 	lea    0x1566(%rip),%rdi        # 4789 <trans_char+0xc9>
    3223:	e8 08 e1 ff ff       	callq  1330 <gethostbyname@plt>
    3228:	48 85 c0             	test   %rax,%rax
    322b:	0f 84 d1 00 00 00    	je     3302 <init_driver+0x150>
    3231:	49 89 e4             	mov    %rsp,%r12
    3234:	48 c7 04 24 00 00 00 	movq   $0x0,(%rsp)
    323b:	00 
    323c:	48 c7 44 24 08 00 00 	movq   $0x0,0x8(%rsp)
    3243:	00 00 
    3245:	66 c7 04 24 02 00    	movw   $0x2,(%rsp)
    324b:	48 63 50 14          	movslq 0x14(%rax),%rdx
    324f:	48 8b 40 18          	mov    0x18(%rax),%rax
    3253:	48 8b 30             	mov    (%rax),%rsi
    3256:	48 8d 7c 24 04       	lea    0x4(%rsp),%rdi
    325b:	b9 0c 00 00 00       	mov    $0xc,%ecx
    3260:	e8 db e0 ff ff       	callq  1340 <__memmove_chk@plt>
    3265:	66 c7 44 24 02 3c 9a 	movw   $0x9a3c,0x2(%rsp)
    326c:	ba 10 00 00 00       	mov    $0x10,%edx
    3271:	4c 89 e6             	mov    %r12,%rsi
    3274:	89 df                	mov    %ebx,%edi
    3276:	e8 95 e1 ff ff       	callq  1410 <connect@plt>
    327b:	85 c0                	test   %eax,%eax
    327d:	0f 88 e7 00 00 00    	js     336a <init_driver+0x1b8>
    3283:	89 df                	mov    %ebx,%edi
    3285:	e8 76 e0 ff ff       	callq  1300 <close@plt>
    328a:	66 c7 45 00 4f 4b    	movw   $0x4b4f,0x0(%rbp)
    3290:	c6 45 02 00          	movb   $0x0,0x2(%rbp)
    3294:	b8 00 00 00 00       	mov    $0x0,%eax
    3299:	48 8b 4c 24 18       	mov    0x18(%rsp),%rcx
    329e:	64 48 33 0c 25 28 00 	xor    %fs:0x28,%rcx
    32a5:	00 00 
    32a7:	0f 85 10 01 00 00    	jne    33bd <init_driver+0x20b>
    32ad:	48 83 c4 20          	add    $0x20,%rsp
    32b1:	5b                   	pop    %rbx
    32b2:	5d                   	pop    %rbp
    32b3:	41 5c                	pop    %r12
    32b5:	c3                   	retq   
    32b6:	48 b8 45 72 72 6f 72 	movabs $0x43203a726f727245,%rax
    32bd:	3a 20 43 
    32c0:	48 ba 6c 69 65 6e 74 	movabs $0x6e7520746e65696c,%rdx
    32c7:	20 75 6e 
    32ca:	48 89 45 00          	mov    %rax,0x0(%rbp)
    32ce:	48 89 55 08          	mov    %rdx,0x8(%rbp)
    32d2:	48 b8 61 62 6c 65 20 	movabs $0x206f7420656c6261,%rax
    32d9:	74 6f 20 
    32dc:	48 ba 63 72 65 61 74 	movabs $0x7320657461657263,%rdx
    32e3:	65 20 73 
    32e6:	48 89 45 10          	mov    %rax,0x10(%rbp)
    32ea:	48 89 55 18          	mov    %rdx,0x18(%rbp)
    32ee:	c7 45 20 6f 63 6b 65 	movl   $0x656b636f,0x20(%rbp)
    32f5:	66 c7 45 24 74 00    	movw   $0x74,0x24(%rbp)
    32fb:	b8 ff ff ff ff       	mov    $0xffffffff,%eax
    3300:	eb 97                	jmp    3299 <init_driver+0xe7>
    3302:	48 b8 45 72 72 6f 72 	movabs $0x44203a726f727245,%rax
    3309:	3a 20 44 
    330c:	48 ba 4e 53 20 69 73 	movabs $0x6e7520736920534e,%rdx
    3313:	20 75 6e 
    3316:	48 89 45 00          	mov    %rax,0x0(%rbp)
    331a:	48 89 55 08          	mov    %rdx,0x8(%rbp)
    331e:	48 b8 61 62 6c 65 20 	movabs $0x206f7420656c6261,%rax
    3325:	74 6f 20 
    3328:	48 ba 72 65 73 6f 6c 	movabs $0x2065766c6f736572,%rdx
    332f:	76 65 20 
    3332:	48 89 45 10          	mov    %rax,0x10(%rbp)
    3336:	48 89 55 18          	mov    %rdx,0x18(%rbp)
    333a:	48 b8 73 65 72 76 65 	movabs $0x6120726576726573,%rax
    3341:	72 20 61 
    3344:	48 89 45 20          	mov    %rax,0x20(%rbp)
    3348:	c7 45 28 64 64 72 65 	movl   $0x65726464,0x28(%rbp)
    334f:	66 c7 45 2c 73 73    	movw   $0x7373,0x2c(%rbp)
    3355:	c6 45 2e 00          	movb   $0x0,0x2e(%rbp)
    3359:	89 df                	mov    %ebx,%edi
    335b:	e8 a0 df ff ff       	callq  1300 <close@plt>
    3360:	b8 ff ff ff ff       	mov    $0xffffffff,%eax
    3365:	e9 2f ff ff ff       	jmpq   3299 <init_driver+0xe7>
    336a:	48 b8 45 72 72 6f 72 	movabs $0x55203a726f727245,%rax
    3371:	3a 20 55 
    3374:	48 ba 6e 61 62 6c 65 	movabs $0x6f7420656c62616e,%rdx
    337b:	20 74 6f 
    337e:	48 89 45 00          	mov    %rax,0x0(%rbp)
    3382:	48 89 55 08          	mov    %rdx,0x8(%rbp)
    3386:	48 b8 20 63 6f 6e 6e 	movabs $0x7463656e6e6f6320,%rax
    338d:	65 63 74 
    3390:	48 ba 20 74 6f 20 73 	movabs $0x76726573206f7420,%rdx
    3397:	65 72 76 
    339a:	48 89 45 10          	mov    %rax,0x10(%rbp)
    339e:	48 89 55 18          	mov    %rdx,0x18(%rbp)
    33a2:	66 c7 45 20 65 72    	movw   $0x7265,0x20(%rbp)
    33a8:	c6 45 22 00          	movb   $0x0,0x22(%rbp)
    33ac:	89 df                	mov    %ebx,%edi
    33ae:	e8 4d df ff ff       	callq  1300 <close@plt>
    33b3:	b8 ff ff ff ff       	mov    $0xffffffff,%eax
    33b8:	e9 dc fe ff ff       	jmpq   3299 <init_driver+0xe7>
    33bd:	e8 fe de ff ff       	callq  12c0 <__stack_chk_fail@plt>

00000000000033c2 <driver_post>:
    33c2:	f3 0f 1e fa          	endbr64 
    33c6:	53                   	push   %rbx
    33c7:	4c 89 cb             	mov    %r9,%rbx
    33ca:	45 85 c0             	test   %r8d,%r8d
    33cd:	75 18                	jne    33e7 <driver_post+0x25>
    33cf:	48 85 ff             	test   %rdi,%rdi
    33d2:	74 05                	je     33d9 <driver_post+0x17>
    33d4:	80 3f 00             	cmpb   $0x0,(%rdi)
    33d7:	75 37                	jne    3410 <driver_post+0x4e>
    33d9:	66 c7 03 4f 4b       	movw   $0x4b4f,(%rbx)
    33de:	c6 43 02 00          	movb   $0x0,0x2(%rbx)
    33e2:	44 89 c0             	mov    %r8d,%eax
    33e5:	5b                   	pop    %rbx
    33e6:	c3                   	retq   
    33e7:	48 89 ca             	mov    %rcx,%rdx
    33ea:	48 8d 35 a7 13 00 00 	lea    0x13a7(%rip),%rsi        # 4798 <trans_char+0xd8>
    33f1:	bf 01 00 00 00       	mov    $0x1,%edi
    33f6:	b8 00 00 00 00       	mov    $0x0,%eax
    33fb:	e8 b0 df ff ff       	callq  13b0 <__printf_chk@plt>
    3400:	66 c7 03 4f 4b       	movw   $0x4b4f,(%rbx)
    3405:	c6 43 02 00          	movb   $0x0,0x2(%rbx)
    3409:	b8 00 00 00 00       	mov    $0x0,%eax
    340e:	eb d5                	jmp    33e5 <driver_post+0x23>
    3410:	48 83 ec 08          	sub    $0x8,%rsp
    3414:	41 51                	push   %r9
    3416:	49 89 c9             	mov    %rcx,%r9
    3419:	49 89 d0             	mov    %rdx,%r8
    341c:	48 89 f9             	mov    %rdi,%rcx
    341f:	48 89 f2             	mov    %rsi,%rdx
    3422:	be 9a 3c 00 00       	mov    $0x3c9a,%esi
    3427:	48 8d 3d 5b 13 00 00 	lea    0x135b(%rip),%rdi        # 4789 <trans_char+0xc9>
    342e:	e8 be f5 ff ff       	callq  29f1 <submitr>
    3433:	48 83 c4 10          	add    $0x10,%rsp
    3437:	eb ac                	jmp    33e5 <driver_post+0x23>

0000000000003439 <check>:
    3439:	f3 0f 1e fa          	endbr64 
    343d:	89 f8                	mov    %edi,%eax
    343f:	c1 e8 1c             	shr    $0x1c,%eax
    3442:	74 1d                	je     3461 <check+0x28>
    3444:	b9 00 00 00 00       	mov    $0x0,%ecx
    3449:	83 f9 1f             	cmp    $0x1f,%ecx
    344c:	7f 0d                	jg     345b <check+0x22>
    344e:	89 f8                	mov    %edi,%eax
    3450:	d3 e8                	shr    %cl,%eax
    3452:	3c 0a                	cmp    $0xa,%al
    3454:	74 11                	je     3467 <check+0x2e>
    3456:	83 c1 08             	add    $0x8,%ecx
    3459:	eb ee                	jmp    3449 <check+0x10>
    345b:	b8 01 00 00 00       	mov    $0x1,%eax
    3460:	c3                   	retq   
    3461:	b8 00 00 00 00       	mov    $0x0,%eax
    3466:	c3                   	retq   
    3467:	b8 00 00 00 00       	mov    $0x0,%eax
    346c:	c3                   	retq   

000000000000346d <gencookie>:
    346d:	f3 0f 1e fa          	endbr64 
    3471:	53                   	push   %rbx
    3472:	83 c7 01             	add    $0x1,%edi
    3475:	e8 f6 dd ff ff       	callq  1270 <srandom@plt>
    347a:	e8 01 df ff ff       	callq  1380 <random@plt>
    347f:	48 89 c7             	mov    %rax,%rdi
    3482:	89 c3                	mov    %eax,%ebx
    3484:	e8 b0 ff ff ff       	callq  3439 <check>
    3489:	85 c0                	test   %eax,%eax
    348b:	74 ed                	je     347a <gencookie+0xd>
    348d:	89 d8                	mov    %ebx,%eax
    348f:	5b                   	pop    %rbx
    3490:	c3                   	retq   
    3491:	66 2e 0f 1f 84 00 00 	nopw   %cs:0x0(%rax,%rax,1)
    3498:	00 00 00 
    349b:	0f 1f 44 00 00       	nopl   0x0(%rax,%rax,1)

00000000000034a0 <__libc_csu_init>:
    34a0:	f3 0f 1e fa          	endbr64 
    34a4:	41 57                	push   %r15
    34a6:	4c 8d 3d 0b 38 00 00 	lea    0x380b(%rip),%r15        # 6cb8 <__frame_dummy_init_array_entry>
    34ad:	41 56                	push   %r14
    34af:	49 89 d6             	mov    %rdx,%r14
    34b2:	41 55                	push   %r13
    34b4:	49 89 f5             	mov    %rsi,%r13
    34b7:	41 54                	push   %r12
    34b9:	41 89 fc             	mov    %edi,%r12d
    34bc:	55                   	push   %rbp
    34bd:	48 8d 2d fc 37 00 00 	lea    0x37fc(%rip),%rbp        # 6cc0 <__do_global_dtors_aux_fini_array_entry>
    34c4:	53                   	push   %rbx
    34c5:	4c 29 fd             	sub    %r15,%rbp
    34c8:	48 83 ec 08          	sub    $0x8,%rsp
    34cc:	e8 2f db ff ff       	callq  1000 <_init>
    34d1:	48 c1 fd 03          	sar    $0x3,%rbp
    34d5:	74 1f                	je     34f6 <__libc_csu_init+0x56>
    34d7:	31 db                	xor    %ebx,%ebx
    34d9:	0f 1f 80 00 00 00 00 	nopl   0x0(%rax)
    34e0:	4c 89 f2             	mov    %r14,%rdx
    34e3:	4c 89 ee             	mov    %r13,%rsi
    34e6:	44 89 e7             	mov    %r12d,%edi
    34e9:	41 ff 14 df          	callq  *(%r15,%rbx,8)
    34ed:	48 83 c3 01          	add    $0x1,%rbx
    34f1:	48 39 dd             	cmp    %rbx,%rbp
    34f4:	75 ea                	jne    34e0 <__libc_csu_init+0x40>
    34f6:	48 83 c4 08          	add    $0x8,%rsp
    34fa:	5b                   	pop    %rbx
    34fb:	5d                   	pop    %rbp
    34fc:	41 5c                	pop    %r12
    34fe:	41 5d                	pop    %r13
    3500:	41 5e                	pop    %r14
    3502:	41 5f                	pop    %r15
    3504:	c3                   	retq   
    3505:	66 66 2e 0f 1f 84 00 	data16 nopw %cs:0x0(%rax,%rax,1)
    350c:	00 00 00 00 

0000000000003510 <__libc_csu_fini>:
    3510:	f3 0f 1e fa          	endbr64 
    3514:	c3                   	retq   

Disassembly of section .fini:

0000000000003518 <_fini>:
    3518:	f3 0f 1e fa          	endbr64 
    351c:	48 83 ec 08          	sub    $0x8,%rsp
    3520:	48 83 c4 08          	add    $0x8,%rsp
    3524:	c3                   	retq   
