
ctarget:     file format elf64-x86-64


Disassembly of section .init:

0000000000001000 <_init>:
    1000:	f3 0f 1e fa          	endbr64 
    1004:	48 83 ec 08          	sub    $0x8,%rsp
    1008:	48 8b 05 d9 5f 00 00 	mov    0x5fd9(%rip),%rax        # 6fe8 <__gmon_start__>
    100f:	48 85 c0             	test   %rax,%rax
    1012:	74 02                	je     1016 <_init+0x16>
    1014:	ff d0                	callq  *%rax
    1016:	48 83 c4 08          	add    $0x8,%rsp
    101a:	c3                   	retq   

Disassembly of section .plt:

0000000000001020 <.plt>:
    1020:	ff 35 9a 5e 00 00    	pushq  0x5e9a(%rip)        # 6ec0 <_GLOBAL_OFFSET_TABLE_+0x8>
    1026:	f2 ff 25 9b 5e 00 00 	bnd jmpq *0x5e9b(%rip)        # 6ec8 <_GLOBAL_OFFSET_TABLE_+0x10>
    102d:	0f 1f 00             	nopl   (%rax)
    1030:	f3 0f 1e fa          	endbr64 
    1034:	68 00 00 00 00       	pushq  $0x0
    1039:	f2 e9 e1 ff ff ff    	bnd jmpq 1020 <.plt>
    103f:	90                   	nop
    1040:	f3 0f 1e fa          	endbr64 
    1044:	68 01 00 00 00       	pushq  $0x1
    1049:	f2 e9 d1 ff ff ff    	bnd jmpq 1020 <.plt>
    104f:	90                   	nop
    1050:	f3 0f 1e fa          	endbr64 
    1054:	68 02 00 00 00       	pushq  $0x2
    1059:	f2 e9 c1 ff ff ff    	bnd jmpq 1020 <.plt>
    105f:	90                   	nop
    1060:	f3 0f 1e fa          	endbr64 
    1064:	68 03 00 00 00       	pushq  $0x3
    1069:	f2 e9 b1 ff ff ff    	bnd jmpq 1020 <.plt>
    106f:	90                   	nop
    1070:	f3 0f 1e fa          	endbr64 
    1074:	68 04 00 00 00       	pushq  $0x4
    1079:	f2 e9 a1 ff ff ff    	bnd jmpq 1020 <.plt>
    107f:	90                   	nop
    1080:	f3 0f 1e fa          	endbr64 
    1084:	68 05 00 00 00       	pushq  $0x5
    1089:	f2 e9 91 ff ff ff    	bnd jmpq 1020 <.plt>
    108f:	90                   	nop
    1090:	f3 0f 1e fa          	endbr64 
    1094:	68 06 00 00 00       	pushq  $0x6
    1099:	f2 e9 81 ff ff ff    	bnd jmpq 1020 <.plt>
    109f:	90                   	nop
    10a0:	f3 0f 1e fa          	endbr64 
    10a4:	68 07 00 00 00       	pushq  $0x7
    10a9:	f2 e9 71 ff ff ff    	bnd jmpq 1020 <.plt>
    10af:	90                   	nop
    10b0:	f3 0f 1e fa          	endbr64 
    10b4:	68 08 00 00 00       	pushq  $0x8
    10b9:	f2 e9 61 ff ff ff    	bnd jmpq 1020 <.plt>
    10bf:	90                   	nop
    10c0:	f3 0f 1e fa          	endbr64 
    10c4:	68 09 00 00 00       	pushq  $0x9
    10c9:	f2 e9 51 ff ff ff    	bnd jmpq 1020 <.plt>
    10cf:	90                   	nop
    10d0:	f3 0f 1e fa          	endbr64 
    10d4:	68 0a 00 00 00       	pushq  $0xa
    10d9:	f2 e9 41 ff ff ff    	bnd jmpq 1020 <.plt>
    10df:	90                   	nop
    10e0:	f3 0f 1e fa          	endbr64 
    10e4:	68 0b 00 00 00       	pushq  $0xb
    10e9:	f2 e9 31 ff ff ff    	bnd jmpq 1020 <.plt>
    10ef:	90                   	nop
    10f0:	f3 0f 1e fa          	endbr64 
    10f4:	68 0c 00 00 00       	pushq  $0xc
    10f9:	f2 e9 21 ff ff ff    	bnd jmpq 1020 <.plt>
    10ff:	90                   	nop
    1100:	f3 0f 1e fa          	endbr64 
    1104:	68 0d 00 00 00       	pushq  $0xd
    1109:	f2 e9 11 ff ff ff    	bnd jmpq 1020 <.plt>
    110f:	90                   	nop
    1110:	f3 0f 1e fa          	endbr64 
    1114:	68 0e 00 00 00       	pushq  $0xe
    1119:	f2 e9 01 ff ff ff    	bnd jmpq 1020 <.plt>
    111f:	90                   	nop
    1120:	f3 0f 1e fa          	endbr64 
    1124:	68 0f 00 00 00       	pushq  $0xf
    1129:	f2 e9 f1 fe ff ff    	bnd jmpq 1020 <.plt>
    112f:	90                   	nop
    1130:	f3 0f 1e fa          	endbr64 
    1134:	68 10 00 00 00       	pushq  $0x10
    1139:	f2 e9 e1 fe ff ff    	bnd jmpq 1020 <.plt>
    113f:	90                   	nop
    1140:	f3 0f 1e fa          	endbr64 
    1144:	68 11 00 00 00       	pushq  $0x11
    1149:	f2 e9 d1 fe ff ff    	bnd jmpq 1020 <.plt>
    114f:	90                   	nop
    1150:	f3 0f 1e fa          	endbr64 
    1154:	68 12 00 00 00       	pushq  $0x12
    1159:	f2 e9 c1 fe ff ff    	bnd jmpq 1020 <.plt>
    115f:	90                   	nop
    1160:	f3 0f 1e fa          	endbr64 
    1164:	68 13 00 00 00       	pushq  $0x13
    1169:	f2 e9 b1 fe ff ff    	bnd jmpq 1020 <.plt>
    116f:	90                   	nop
    1170:	f3 0f 1e fa          	endbr64 
    1174:	68 14 00 00 00       	pushq  $0x14
    1179:	f2 e9 a1 fe ff ff    	bnd jmpq 1020 <.plt>
    117f:	90                   	nop
    1180:	f3 0f 1e fa          	endbr64 
    1184:	68 15 00 00 00       	pushq  $0x15
    1189:	f2 e9 91 fe ff ff    	bnd jmpq 1020 <.plt>
    118f:	90                   	nop
    1190:	f3 0f 1e fa          	endbr64 
    1194:	68 16 00 00 00       	pushq  $0x16
    1199:	f2 e9 81 fe ff ff    	bnd jmpq 1020 <.plt>
    119f:	90                   	nop
    11a0:	f3 0f 1e fa          	endbr64 
    11a4:	68 17 00 00 00       	pushq  $0x17
    11a9:	f2 e9 71 fe ff ff    	bnd jmpq 1020 <.plt>
    11af:	90                   	nop
    11b0:	f3 0f 1e fa          	endbr64 
    11b4:	68 18 00 00 00       	pushq  $0x18
    11b9:	f2 e9 61 fe ff ff    	bnd jmpq 1020 <.plt>
    11bf:	90                   	nop
    11c0:	f3 0f 1e fa          	endbr64 
    11c4:	68 19 00 00 00       	pushq  $0x19
    11c9:	f2 e9 51 fe ff ff    	bnd jmpq 1020 <.plt>
    11cf:	90                   	nop
    11d0:	f3 0f 1e fa          	endbr64 
    11d4:	68 1a 00 00 00       	pushq  $0x1a
    11d9:	f2 e9 41 fe ff ff    	bnd jmpq 1020 <.plt>
    11df:	90                   	nop
    11e0:	f3 0f 1e fa          	endbr64 
    11e4:	68 1b 00 00 00       	pushq  $0x1b
    11e9:	f2 e9 31 fe ff ff    	bnd jmpq 1020 <.plt>
    11ef:	90                   	nop
    11f0:	f3 0f 1e fa          	endbr64 
    11f4:	68 1c 00 00 00       	pushq  $0x1c
    11f9:	f2 e9 21 fe ff ff    	bnd jmpq 1020 <.plt>
    11ff:	90                   	nop
    1200:	f3 0f 1e fa          	endbr64 
    1204:	68 1d 00 00 00       	pushq  $0x1d
    1209:	f2 e9 11 fe ff ff    	bnd jmpq 1020 <.plt>
    120f:	90                   	nop
    1210:	f3 0f 1e fa          	endbr64 
    1214:	68 1e 00 00 00       	pushq  $0x1e
    1219:	f2 e9 01 fe ff ff    	bnd jmpq 1020 <.plt>
    121f:	90                   	nop
    1220:	f3 0f 1e fa          	endbr64 
    1224:	68 1f 00 00 00       	pushq  $0x1f
    1229:	f2 e9 f1 fd ff ff    	bnd jmpq 1020 <.plt>
    122f:	90                   	nop
    1230:	f3 0f 1e fa          	endbr64 
    1234:	68 20 00 00 00       	pushq  $0x20
    1239:	f2 e9 e1 fd ff ff    	bnd jmpq 1020 <.plt>
    123f:	90                   	nop

Disassembly of section .plt.got:

0000000000001240 <__cxa_finalize@plt>:
    1240:	f3 0f 1e fa          	endbr64 
    1244:	f2 ff 25 ad 5d 00 00 	bnd jmpq *0x5dad(%rip)        # 6ff8 <__cxa_finalize@GLIBC_2.2.5>
    124b:	0f 1f 44 00 00       	nopl   0x0(%rax,%rax,1)

Disassembly of section .plt.sec:

0000000000001250 <strcasecmp@plt>:
    1250:	f3 0f 1e fa          	endbr64 
    1254:	f2 ff 25 75 5c 00 00 	bnd jmpq *0x5c75(%rip)        # 6ed0 <strcasecmp@GLIBC_2.2.5>
    125b:	0f 1f 44 00 00       	nopl   0x0(%rax,%rax,1)

0000000000001260 <__errno_location@plt>:
    1260:	f3 0f 1e fa          	endbr64 
    1264:	f2 ff 25 6d 5c 00 00 	bnd jmpq *0x5c6d(%rip)        # 6ed8 <__errno_location@GLIBC_2.2.5>
    126b:	0f 1f 44 00 00       	nopl   0x0(%rax,%rax,1)

0000000000001270 <srandom@plt>:
    1270:	f3 0f 1e fa          	endbr64 
    1274:	f2 ff 25 65 5c 00 00 	bnd jmpq *0x5c65(%rip)        # 6ee0 <srandom@GLIBC_2.2.5>
    127b:	0f 1f 44 00 00       	nopl   0x0(%rax,%rax,1)

0000000000001280 <strncmp@plt>:
    1280:	f3 0f 1e fa          	endbr64 
    1284:	f2 ff 25 5d 5c 00 00 	bnd jmpq *0x5c5d(%rip)        # 6ee8 <strncmp@GLIBC_2.2.5>
    128b:	0f 1f 44 00 00       	nopl   0x0(%rax,%rax,1)

0000000000001290 <strcpy@plt>:
    1290:	f3 0f 1e fa          	endbr64 
    1294:	f2 ff 25 55 5c 00 00 	bnd jmpq *0x5c55(%rip)        # 6ef0 <strcpy@GLIBC_2.2.5>
    129b:	0f 1f 44 00 00       	nopl   0x0(%rax,%rax,1)

00000000000012a0 <puts@plt>:
    12a0:	f3 0f 1e fa          	endbr64 
    12a4:	f2 ff 25 4d 5c 00 00 	bnd jmpq *0x5c4d(%rip)        # 6ef8 <puts@GLIBC_2.2.5>
    12ab:	0f 1f 44 00 00       	nopl   0x0(%rax,%rax,1)

00000000000012b0 <write@plt>:
    12b0:	f3 0f 1e fa          	endbr64 
    12b4:	f2 ff 25 45 5c 00 00 	bnd jmpq *0x5c45(%rip)        # 6f00 <write@GLIBC_2.2.5>
    12bb:	0f 1f 44 00 00       	nopl   0x0(%rax,%rax,1)

00000000000012c0 <__stack_chk_fail@plt>:
    12c0:	f3 0f 1e fa          	endbr64 
    12c4:	f2 ff 25 3d 5c 00 00 	bnd jmpq *0x5c3d(%rip)        # 6f08 <__stack_chk_fail@GLIBC_2.4>
    12cb:	0f 1f 44 00 00       	nopl   0x0(%rax,%rax,1)

00000000000012d0 <mmap@plt>:
    12d0:	f3 0f 1e fa          	endbr64 
    12d4:	f2 ff 25 35 5c 00 00 	bnd jmpq *0x5c35(%rip)        # 6f10 <mmap@GLIBC_2.2.5>
    12db:	0f 1f 44 00 00       	nopl   0x0(%rax,%rax,1)

00000000000012e0 <memset@plt>:
    12e0:	f3 0f 1e fa          	endbr64 
    12e4:	f2 ff 25 2d 5c 00 00 	bnd jmpq *0x5c2d(%rip)        # 6f18 <memset@GLIBC_2.2.5>
    12eb:	0f 1f 44 00 00       	nopl   0x0(%rax,%rax,1)

00000000000012f0 <alarm@plt>:
    12f0:	f3 0f 1e fa          	endbr64 
    12f4:	f2 ff 25 25 5c 00 00 	bnd jmpq *0x5c25(%rip)        # 6f20 <alarm@GLIBC_2.2.5>
    12fb:	0f 1f 44 00 00       	nopl   0x0(%rax,%rax,1)

0000000000001300 <close@plt>:
    1300:	f3 0f 1e fa          	endbr64 
    1304:	f2 ff 25 1d 5c 00 00 	bnd jmpq *0x5c1d(%rip)        # 6f28 <close@GLIBC_2.2.5>
    130b:	0f 1f 44 00 00       	nopl   0x0(%rax,%rax,1)

0000000000001310 <read@plt>:
    1310:	f3 0f 1e fa          	endbr64 
    1314:	f2 ff 25 15 5c 00 00 	bnd jmpq *0x5c15(%rip)        # 6f30 <read@GLIBC_2.2.5>
    131b:	0f 1f 44 00 00       	nopl   0x0(%rax,%rax,1)

0000000000001320 <signal@plt>:
    1320:	f3 0f 1e fa          	endbr64 
    1324:	f2 ff 25 0d 5c 00 00 	bnd jmpq *0x5c0d(%rip)        # 6f38 <signal@GLIBC_2.2.5>
    132b:	0f 1f 44 00 00       	nopl   0x0(%rax,%rax,1)

0000000000001330 <gethostbyname@plt>:
    1330:	f3 0f 1e fa          	endbr64 
    1334:	f2 ff 25 05 5c 00 00 	bnd jmpq *0x5c05(%rip)        # 6f40 <gethostbyname@GLIBC_2.2.5>
    133b:	0f 1f 44 00 00       	nopl   0x0(%rax,%rax,1)

0000000000001340 <__memmove_chk@plt>:
    1340:	f3 0f 1e fa          	endbr64 
    1344:	f2 ff 25 fd 5b 00 00 	bnd jmpq *0x5bfd(%rip)        # 6f48 <__memmove_chk@GLIBC_2.3.4>
    134b:	0f 1f 44 00 00       	nopl   0x0(%rax,%rax,1)

0000000000001350 <strtol@plt>:
    1350:	f3 0f 1e fa          	endbr64 
    1354:	f2 ff 25 f5 5b 00 00 	bnd jmpq *0x5bf5(%rip)        # 6f50 <strtol@GLIBC_2.2.5>
    135b:	0f 1f 44 00 00       	nopl   0x0(%rax,%rax,1)

0000000000001360 <memcpy@plt>:
    1360:	f3 0f 1e fa          	endbr64 
    1364:	f2 ff 25 ed 5b 00 00 	bnd jmpq *0x5bed(%rip)        # 6f58 <memcpy@GLIBC_2.14>
    136b:	0f 1f 44 00 00       	nopl   0x0(%rax,%rax,1)

0000000000001370 <time@plt>:
    1370:	f3 0f 1e fa          	endbr64 
    1374:	f2 ff 25 e5 5b 00 00 	bnd jmpq *0x5be5(%rip)        # 6f60 <time@GLIBC_2.2.5>
    137b:	0f 1f 44 00 00       	nopl   0x0(%rax,%rax,1)

0000000000001380 <random@plt>:
    1380:	f3 0f 1e fa          	endbr64 
    1384:	f2 ff 25 dd 5b 00 00 	bnd jmpq *0x5bdd(%rip)        # 6f68 <random@GLIBC_2.2.5>
    138b:	0f 1f 44 00 00       	nopl   0x0(%rax,%rax,1)

0000000000001390 <__isoc99_sscanf@plt>:
    1390:	f3 0f 1e fa          	endbr64 
    1394:	f2 ff 25 d5 5b 00 00 	bnd jmpq *0x5bd5(%rip)        # 6f70 <__isoc99_sscanf@GLIBC_2.7>
    139b:	0f 1f 44 00 00       	nopl   0x0(%rax,%rax,1)

00000000000013a0 <munmap@plt>:
    13a0:	f3 0f 1e fa          	endbr64 
    13a4:	f2 ff 25 cd 5b 00 00 	bnd jmpq *0x5bcd(%rip)        # 6f78 <munmap@GLIBC_2.2.5>
    13ab:	0f 1f 44 00 00       	nopl   0x0(%rax,%rax,1)

00000000000013b0 <__printf_chk@plt>:
    13b0:	f3 0f 1e fa          	endbr64 
    13b4:	f2 ff 25 c5 5b 00 00 	bnd jmpq *0x5bc5(%rip)        # 6f80 <__printf_chk@GLIBC_2.3.4>
    13bb:	0f 1f 44 00 00       	nopl   0x0(%rax,%rax,1)

00000000000013c0 <fopen@plt>:
    13c0:	f3 0f 1e fa          	endbr64 
    13c4:	f2 ff 25 bd 5b 00 00 	bnd jmpq *0x5bbd(%rip)        # 6f88 <fopen@GLIBC_2.2.5>
    13cb:	0f 1f 44 00 00       	nopl   0x0(%rax,%rax,1)

00000000000013d0 <getopt@plt>:
    13d0:	f3 0f 1e fa          	endbr64 
    13d4:	f2 ff 25 b5 5b 00 00 	bnd jmpq *0x5bb5(%rip)        # 6f90 <getopt@GLIBC_2.2.5>
    13db:	0f 1f 44 00 00       	nopl   0x0(%rax,%rax,1)

00000000000013e0 <strtoul@plt>:
    13e0:	f3 0f 1e fa          	endbr64 
    13e4:	f2 ff 25 ad 5b 00 00 	bnd jmpq *0x5bad(%rip)        # 6f98 <strtoul@GLIBC_2.2.5>
    13eb:	0f 1f 44 00 00       	nopl   0x0(%rax,%rax,1)

00000000000013f0 <gethostname@plt>:
    13f0:	f3 0f 1e fa          	endbr64 
    13f4:	f2 ff 25 a5 5b 00 00 	bnd jmpq *0x5ba5(%rip)        # 6fa0 <gethostname@GLIBC_2.2.5>
    13fb:	0f 1f 44 00 00       	nopl   0x0(%rax,%rax,1)

0000000000001400 <exit@plt>:
    1400:	f3 0f 1e fa          	endbr64 
    1404:	f2 ff 25 9d 5b 00 00 	bnd jmpq *0x5b9d(%rip)        # 6fa8 <exit@GLIBC_2.2.5>
    140b:	0f 1f 44 00 00       	nopl   0x0(%rax,%rax,1)

0000000000001410 <connect@plt>:
    1410:	f3 0f 1e fa          	endbr64 
    1414:	f2 ff 25 95 5b 00 00 	bnd jmpq *0x5b95(%rip)        # 6fb0 <connect@GLIBC_2.2.5>
    141b:	0f 1f 44 00 00       	nopl   0x0(%rax,%rax,1)

0000000000001420 <__fprintf_chk@plt>:
    1420:	f3 0f 1e fa          	endbr64 
    1424:	f2 ff 25 8d 5b 00 00 	bnd jmpq *0x5b8d(%rip)        # 6fb8 <__fprintf_chk@GLIBC_2.3.4>
    142b:	0f 1f 44 00 00       	nopl   0x0(%rax,%rax,1)

0000000000001430 <getc@plt>:
    1430:	f3 0f 1e fa          	endbr64 
    1434:	f2 ff 25 85 5b 00 00 	bnd jmpq *0x5b85(%rip)        # 6fc0 <getc@GLIBC_2.2.5>
    143b:	0f 1f 44 00 00       	nopl   0x0(%rax,%rax,1)

0000000000001440 <__sprintf_chk@plt>:
    1440:	f3 0f 1e fa          	endbr64 
    1444:	f2 ff 25 7d 5b 00 00 	bnd jmpq *0x5b7d(%rip)        # 6fc8 <__sprintf_chk@GLIBC_2.3.4>
    144b:	0f 1f 44 00 00       	nopl   0x0(%rax,%rax,1)

0000000000001450 <socket@plt>:
    1450:	f3 0f 1e fa          	endbr64 
    1454:	f2 ff 25 75 5b 00 00 	bnd jmpq *0x5b75(%rip)        # 6fd0 <socket@GLIBC_2.2.5>
    145b:	0f 1f 44 00 00       	nopl   0x0(%rax,%rax,1)

Disassembly of section .text:

0000000000001460 <_start>:
    1460:	f3 0f 1e fa          	endbr64 
    1464:	31 ed                	xor    %ebp,%ebp
    1466:	49 89 d1             	mov    %rdx,%r9
    1469:	5e                   	pop    %rsi
    146a:	48 89 e2             	mov    %rsp,%rdx
    146d:	48 83 e4 f0          	and    $0xfffffffffffffff0,%rsp
    1471:	50                   	push   %rax
    1472:	54                   	push   %rsp
    1473:	4c 8d 05 86 20 00 00 	lea    0x2086(%rip),%r8        # 3500 <__libc_csu_fini>
    147a:	48 8d 0d 0f 20 00 00 	lea    0x200f(%rip),%rcx        # 3490 <__libc_csu_init>
    1481:	48 8d 3d 04 03 00 00 	lea    0x304(%rip),%rdi        # 178c <main>
    1488:	ff 15 52 5b 00 00    	callq  *0x5b52(%rip)        # 6fe0 <__libc_start_main@GLIBC_2.2.5>
    148e:	f4                   	hlt    
    148f:	90                   	nop

0000000000001490 <deregister_tm_clones>:
    1490:	48 8d 3d d9 5e 00 00 	lea    0x5ed9(%rip),%rdi        # 7370 <__TMC_END__>
    1497:	48 8d 05 d2 5e 00 00 	lea    0x5ed2(%rip),%rax        # 7370 <__TMC_END__>
    149e:	48 39 f8             	cmp    %rdi,%rax
    14a1:	74 15                	je     14b8 <deregister_tm_clones+0x28>
    14a3:	48 8b 05 2e 5b 00 00 	mov    0x5b2e(%rip),%rax        # 6fd8 <_ITM_deregisterTMCloneTable>
    14aa:	48 85 c0             	test   %rax,%rax
    14ad:	74 09                	je     14b8 <deregister_tm_clones+0x28>
    14af:	ff e0                	jmpq   *%rax
    14b1:	0f 1f 80 00 00 00 00 	nopl   0x0(%rax)
    14b8:	c3                   	retq   
    14b9:	0f 1f 80 00 00 00 00 	nopl   0x0(%rax)

00000000000014c0 <register_tm_clones>:
    14c0:	48 8d 3d a9 5e 00 00 	lea    0x5ea9(%rip),%rdi        # 7370 <__TMC_END__>
    14c7:	48 8d 35 a2 5e 00 00 	lea    0x5ea2(%rip),%rsi        # 7370 <__TMC_END__>
    14ce:	48 29 fe             	sub    %rdi,%rsi
    14d1:	48 89 f0             	mov    %rsi,%rax
    14d4:	48 c1 ee 3f          	shr    $0x3f,%rsi
    14d8:	48 c1 f8 03          	sar    $0x3,%rax
    14dc:	48 01 c6             	add    %rax,%rsi
    14df:	48 d1 fe             	sar    %rsi
    14e2:	74 14                	je     14f8 <register_tm_clones+0x38>
    14e4:	48 8b 05 05 5b 00 00 	mov    0x5b05(%rip),%rax        # 6ff0 <_ITM_registerTMCloneTable>
    14eb:	48 85 c0             	test   %rax,%rax
    14ee:	74 08                	je     14f8 <register_tm_clones+0x38>
    14f0:	ff e0                	jmpq   *%rax
    14f2:	66 0f 1f 44 00 00    	nopw   0x0(%rax,%rax,1)
    14f8:	c3                   	retq   
    14f9:	0f 1f 80 00 00 00 00 	nopl   0x0(%rax)

0000000000001500 <__do_global_dtors_aux>:
    1500:	f3 0f 1e fa          	endbr64 
    1504:	80 3d 9d 5e 00 00 00 	cmpb   $0x0,0x5e9d(%rip)        # 73a8 <completed.8060>
    150b:	75 2b                	jne    1538 <__do_global_dtors_aux+0x38>
    150d:	55                   	push   %rbp
    150e:	48 83 3d e2 5a 00 00 	cmpq   $0x0,0x5ae2(%rip)        # 6ff8 <__cxa_finalize@GLIBC_2.2.5>
    1515:	00 
    1516:	48 89 e5             	mov    %rsp,%rbp
    1519:	74 0c                	je     1527 <__do_global_dtors_aux+0x27>
    151b:	48 8b 3d e6 5a 00 00 	mov    0x5ae6(%rip),%rdi        # 7008 <__dso_handle>
    1522:	e8 19 fd ff ff       	callq  1240 <__cxa_finalize@plt>
    1527:	e8 64 ff ff ff       	callq  1490 <deregister_tm_clones>
    152c:	c6 05 75 5e 00 00 01 	movb   $0x1,0x5e75(%rip)        # 73a8 <completed.8060>
    1533:	5d                   	pop    %rbp
    1534:	c3                   	retq   
    1535:	0f 1f 00             	nopl   (%rax)
    1538:	c3                   	retq   
    1539:	0f 1f 80 00 00 00 00 	nopl   0x0(%rax)

0000000000001540 <frame_dummy>:
    1540:	f3 0f 1e fa          	endbr64 
    1544:	e9 77 ff ff ff       	jmpq   14c0 <register_tm_clones>

0000000000001549 <usage>:
    1549:	50                   	push   %rax
    154a:	58                   	pop    %rax
    154b:	48 83 ec 08          	sub    $0x8,%rsp
    154f:	48 89 fa             	mov    %rdi,%rdx
    1552:	83 3d 8f 5e 00 00 00 	cmpl   $0x0,0x5e8f(%rip)        # 73e8 <is_checker>
    1559:	74 50                	je     15ab <usage+0x62>
    155b:	48 8d 35 a6 2a 00 00 	lea    0x2aa6(%rip),%rsi        # 4008 <_IO_stdin_used+0x8>
    1562:	bf 01 00 00 00       	mov    $0x1,%edi
    1567:	b8 00 00 00 00       	mov    $0x0,%eax
    156c:	e8 3f fe ff ff       	callq  13b0 <__printf_chk@plt>
    1571:	48 8d 3d c8 2a 00 00 	lea    0x2ac8(%rip),%rdi        # 4040 <_IO_stdin_used+0x40>
    1578:	e8 23 fd ff ff       	callq  12a0 <puts@plt>
    157d:	48 8d 3d 34 2c 00 00 	lea    0x2c34(%rip),%rdi        # 41b8 <_IO_stdin_used+0x1b8>
    1584:	e8 17 fd ff ff       	callq  12a0 <puts@plt>
    1589:	48 8d 3d d8 2a 00 00 	lea    0x2ad8(%rip),%rdi        # 4068 <_IO_stdin_used+0x68>
    1590:	e8 0b fd ff ff       	callq  12a0 <puts@plt>
    1595:	48 8d 3d 36 2c 00 00 	lea    0x2c36(%rip),%rdi        # 41d2 <_IO_stdin_used+0x1d2>
    159c:	e8 ff fc ff ff       	callq  12a0 <puts@plt>
    15a1:	bf 00 00 00 00       	mov    $0x0,%edi
    15a6:	e8 55 fe ff ff       	callq  1400 <exit@plt>
    15ab:	48 8d 35 3c 2c 00 00 	lea    0x2c3c(%rip),%rsi        # 41ee <_IO_stdin_used+0x1ee>
    15b2:	bf 01 00 00 00       	mov    $0x1,%edi
    15b7:	b8 00 00 00 00       	mov    $0x0,%eax
    15bc:	e8 ef fd ff ff       	callq  13b0 <__printf_chk@plt>
    15c1:	48 8d 3d c8 2a 00 00 	lea    0x2ac8(%rip),%rdi        # 4090 <_IO_stdin_used+0x90>
    15c8:	e8 d3 fc ff ff       	callq  12a0 <puts@plt>
    15cd:	48 8d 3d e4 2a 00 00 	lea    0x2ae4(%rip),%rdi        # 40b8 <_IO_stdin_used+0xb8>
    15d4:	e8 c7 fc ff ff       	callq  12a0 <puts@plt>
    15d9:	48 8d 3d 2c 2c 00 00 	lea    0x2c2c(%rip),%rdi        # 420c <_IO_stdin_used+0x20c>
    15e0:	e8 bb fc ff ff       	callq  12a0 <puts@plt>
    15e5:	eb ba                	jmp    15a1 <usage+0x58>

00000000000015e7 <initialize_target>:
    15e7:	55                   	push   %rbp
    15e8:	53                   	push   %rbx
    15e9:	48 81 ec 00 10 00 00 	sub    $0x1000,%rsp
    15f0:	48 83 0c 24 00       	orq    $0x0,(%rsp)
    15f5:	48 81 ec 00 10 00 00 	sub    $0x1000,%rsp
    15fc:	48 83 0c 24 00       	orq    $0x0,(%rsp)
    1601:	48 81 ec 18 01 00 00 	sub    $0x118,%rsp
    1608:	89 f5                	mov    %esi,%ebp
    160a:	64 48 8b 04 25 28 00 	mov    %fs:0x28,%rax
    1611:	00 00 
    1613:	48 89 84 24 08 21 00 	mov    %rax,0x2108(%rsp)
    161a:	00 
    161b:	31 c0                	xor    %eax,%eax
    161d:	89 3d b5 5d 00 00    	mov    %edi,0x5db5(%rip)        # 73d8 <check_level>
    1623:	8b 3d e7 59 00 00    	mov    0x59e7(%rip),%edi        # 7010 <target_id>
    1629:	e8 32 1e 00 00       	callq  3460 <gencookie>
    162e:	89 c7                	mov    %eax,%edi
    1630:	89 05 ae 5d 00 00    	mov    %eax,0x5dae(%rip)        # 73e4 <cookie>
    1636:	e8 25 1e 00 00       	callq  3460 <gencookie>
    163b:	89 05 9f 5d 00 00    	mov    %eax,0x5d9f(%rip)        # 73e0 <authkey>
    1641:	8b 05 c9 59 00 00    	mov    0x59c9(%rip),%eax        # 7010 <target_id>
    1647:	8d 78 01             	lea    0x1(%rax),%edi
    164a:	e8 21 fc ff ff       	callq  1270 <srandom@plt>
    164f:	e8 2c fd ff ff       	callq  1380 <random@plt>
    1654:	48 89 c7             	mov    %rax,%rdi
    1657:	e8 20 03 00 00       	callq  197c <scramble>
    165c:	89 c3                	mov    %eax,%ebx
    165e:	85 ed                	test   %ebp,%ebp
    1660:	75 54                	jne    16b6 <initialize_target+0xcf>
    1662:	b8 00 00 00 00       	mov    $0x0,%eax
    1667:	01 d8                	add    %ebx,%eax
    1669:	0f b7 c0             	movzwl %ax,%eax
    166c:	8d 04 c5 00 01 00 00 	lea    0x100(,%rax,8),%eax
    1673:	89 c0                	mov    %eax,%eax
    1675:	48 89 05 e4 5c 00 00 	mov    %rax,0x5ce4(%rip)        # 7360 <buf_offset>
    167c:	c6 05 85 69 00 00 63 	movb   $0x63,0x6985(%rip)        # 8008 <target_prefix>
    1683:	83 3d de 5c 00 00 00 	cmpl   $0x0,0x5cde(%rip)        # 7368 <notify>
    168a:	74 09                	je     1695 <initialize_target+0xae>
    168c:	83 3d 55 5d 00 00 00 	cmpl   $0x0,0x5d55(%rip)        # 73e8 <is_checker>
    1693:	74 3a                	je     16cf <initialize_target+0xe8>
    1695:	48 8b 84 24 08 21 00 	mov    0x2108(%rsp),%rax
    169c:	00 
    169d:	64 48 33 04 25 28 00 	xor    %fs:0x28,%rax
    16a4:	00 00 
    16a6:	0f 85 db 00 00 00    	jne    1787 <initialize_target+0x1a0>
    16ac:	48 81 c4 18 21 00 00 	add    $0x2118,%rsp
    16b3:	5b                   	pop    %rbx
    16b4:	5d                   	pop    %rbp
    16b5:	c3                   	retq   
    16b6:	bf 00 00 00 00       	mov    $0x0,%edi
    16bb:	e8 b0 fc ff ff       	callq  1370 <time@plt>
    16c0:	48 89 c7             	mov    %rax,%rdi
    16c3:	e8 a8 fb ff ff       	callq  1270 <srandom@plt>
    16c8:	e8 b3 fc ff ff       	callq  1380 <random@plt>
    16cd:	eb 98                	jmp    1667 <initialize_target+0x80>
    16cf:	48 89 e7             	mov    %rsp,%rdi
    16d2:	be 00 01 00 00       	mov    $0x100,%esi
    16d7:	e8 14 fd ff ff       	callq  13f0 <gethostname@plt>
    16dc:	89 c5                	mov    %eax,%ebp
    16de:	85 c0                	test   %eax,%eax
    16e0:	75 26                	jne    1708 <initialize_target+0x121>
    16e2:	89 c3                	mov    %eax,%ebx
    16e4:	48 63 c3             	movslq %ebx,%rax
    16e7:	48 8d 15 52 59 00 00 	lea    0x5952(%rip),%rdx        # 7040 <host_table>
    16ee:	48 8b 3c c2          	mov    (%rdx,%rax,8),%rdi
    16f2:	48 85 ff             	test   %rdi,%rdi
    16f5:	74 2c                	je     1723 <initialize_target+0x13c>
    16f7:	48 89 e6             	mov    %rsp,%rsi
    16fa:	e8 51 fb ff ff       	callq  1250 <strcasecmp@plt>
    16ff:	85 c0                	test   %eax,%eax
    1701:	74 1b                	je     171e <initialize_target+0x137>
    1703:	83 c3 01             	add    $0x1,%ebx
    1706:	eb dc                	jmp    16e4 <initialize_target+0xfd>
    1708:	48 8d 3d d9 29 00 00 	lea    0x29d9(%rip),%rdi        # 40e8 <_IO_stdin_used+0xe8>
    170f:	e8 8c fb ff ff       	callq  12a0 <puts@plt>
    1714:	bf 08 00 00 00       	mov    $0x8,%edi
    1719:	e8 e2 fc ff ff       	callq  1400 <exit@plt>
    171e:	bd 01 00 00 00       	mov    $0x1,%ebp
    1723:	85 ed                	test   %ebp,%ebp
    1725:	74 3d                	je     1764 <initialize_target+0x17d>
    1727:	48 8d bc 24 00 01 00 	lea    0x100(%rsp),%rdi
    172e:	00 
    172f:	e8 71 1a 00 00       	callq  31a5 <init_driver>
    1734:	85 c0                	test   %eax,%eax
    1736:	0f 89 59 ff ff ff    	jns    1695 <initialize_target+0xae>
    173c:	48 8d 94 24 00 01 00 	lea    0x100(%rsp),%rdx
    1743:	00 
    1744:	48 8d 35 15 2a 00 00 	lea    0x2a15(%rip),%rsi        # 4160 <_IO_stdin_used+0x160>
    174b:	bf 01 00 00 00       	mov    $0x1,%edi
    1750:	b8 00 00 00 00       	mov    $0x0,%eax
    1755:	e8 56 fc ff ff       	callq  13b0 <__printf_chk@plt>
    175a:	bf 08 00 00 00       	mov    $0x8,%edi
    175f:	e8 9c fc ff ff       	callq  1400 <exit@plt>
    1764:	48 89 e2             	mov    %rsp,%rdx
    1767:	48 8d 35 b2 29 00 00 	lea    0x29b2(%rip),%rsi        # 4120 <_IO_stdin_used+0x120>
    176e:	bf 01 00 00 00       	mov    $0x1,%edi
    1773:	b8 00 00 00 00       	mov    $0x0,%eax
    1778:	e8 33 fc ff ff       	callq  13b0 <__printf_chk@plt>
    177d:	bf 08 00 00 00       	mov    $0x8,%edi
    1782:	e8 79 fc ff ff       	callq  1400 <exit@plt>
    1787:	e8 34 fb ff ff       	callq  12c0 <__stack_chk_fail@plt>

000000000000178c <main>:
    178c:	f3 0f 1e fa          	endbr64 
    1790:	41 56                	push   %r14
    1792:	41 55                	push   %r13
    1794:	41 54                	push   %r12
    1796:	55                   	push   %rbp
    1797:	53                   	push   %rbx
    1798:	89 fd                	mov    %edi,%ebp
    179a:	48 89 f3             	mov    %rsi,%rbx
    179d:	48 8d 35 a4 0c 00 00 	lea    0xca4(%rip),%rsi        # 2448 <seghandler>
    17a4:	bf 0b 00 00 00       	mov    $0xb,%edi
    17a9:	e8 72 fb ff ff       	callq  1320 <signal@plt>
    17ae:	48 8d 35 39 0c 00 00 	lea    0xc39(%rip),%rsi        # 23ee <bushandler>
    17b5:	bf 07 00 00 00       	mov    $0x7,%edi
    17ba:	e8 61 fb ff ff       	callq  1320 <signal@plt>
    17bf:	48 8d 35 dc 0c 00 00 	lea    0xcdc(%rip),%rsi        # 24a2 <illegalhandler>
    17c6:	bf 04 00 00 00       	mov    $0x4,%edi
    17cb:	e8 50 fb ff ff       	callq  1320 <signal@plt>
    17d0:	83 3d 11 5c 00 00 00 	cmpl   $0x0,0x5c11(%rip)        # 73e8 <is_checker>
    17d7:	75 26                	jne    17ff <main+0x73>
    17d9:	4c 8d 25 4d 2a 00 00 	lea    0x2a4d(%rip),%r12        # 422d <_IO_stdin_used+0x22d>
    17e0:	48 8b 05 99 5b 00 00 	mov    0x5b99(%rip),%rax        # 7380 <stdin@@GLIBC_2.2.5>
    17e7:	48 89 05 e2 5b 00 00 	mov    %rax,0x5be2(%rip)        # 73d0 <infile>
    17ee:	41 bd 00 00 00 00    	mov    $0x0,%r13d
    17f4:	41 be 00 00 00 00    	mov    $0x0,%r14d
    17fa:	e9 8d 00 00 00       	jmpq   188c <main+0x100>
    17ff:	48 8d 35 f6 0c 00 00 	lea    0xcf6(%rip),%rsi        # 24fc <sigalrmhandler>
    1806:	bf 0e 00 00 00       	mov    $0xe,%edi
    180b:	e8 10 fb ff ff       	callq  1320 <signal@plt>
    1810:	bf 05 00 00 00       	mov    $0x5,%edi
    1815:	e8 d6 fa ff ff       	callq  12f0 <alarm@plt>
    181a:	4c 8d 25 04 2a 00 00 	lea    0x2a04(%rip),%r12        # 4225 <_IO_stdin_used+0x225>
    1821:	eb bd                	jmp    17e0 <main+0x54>
    1823:	48 8b 3b             	mov    (%rbx),%rdi
    1826:	e8 1e fd ff ff       	callq  1549 <usage>
    182b:	48 8d 35 53 2c 00 00 	lea    0x2c53(%rip),%rsi        # 4485 <_IO_stdin_used+0x485>
    1832:	48 8b 3d 4f 5b 00 00 	mov    0x5b4f(%rip),%rdi        # 7388 <optarg@@GLIBC_2.2.5>
    1839:	e8 82 fb ff ff       	callq  13c0 <fopen@plt>
    183e:	48 89 05 8b 5b 00 00 	mov    %rax,0x5b8b(%rip)        # 73d0 <infile>
    1845:	48 85 c0             	test   %rax,%rax
    1848:	75 42                	jne    188c <main+0x100>
    184a:	48 8b 0d 37 5b 00 00 	mov    0x5b37(%rip),%rcx        # 7388 <optarg@@GLIBC_2.2.5>
    1851:	48 8d 15 da 29 00 00 	lea    0x29da(%rip),%rdx        # 4232 <_IO_stdin_used+0x232>
    1858:	be 01 00 00 00       	mov    $0x1,%esi
    185d:	48 8b 3d 3c 5b 00 00 	mov    0x5b3c(%rip),%rdi        # 73a0 <stderr@@GLIBC_2.2.5>
    1864:	e8 b7 fb ff ff       	callq  1420 <__fprintf_chk@plt>
    1869:	b8 01 00 00 00       	mov    $0x1,%eax
    186e:	e9 db 00 00 00       	jmpq   194e <main+0x1c2>
    1873:	ba 10 00 00 00       	mov    $0x10,%edx
    1878:	be 00 00 00 00       	mov    $0x0,%esi
    187d:	48 8b 3d 04 5b 00 00 	mov    0x5b04(%rip),%rdi        # 7388 <optarg@@GLIBC_2.2.5>
    1884:	e8 57 fb ff ff       	callq  13e0 <strtoul@plt>
    1889:	41 89 c6             	mov    %eax,%r14d
    188c:	4c 89 e2             	mov    %r12,%rdx
    188f:	48 89 de             	mov    %rbx,%rsi
    1892:	89 ef                	mov    %ebp,%edi
    1894:	e8 37 fb ff ff       	callq  13d0 <getopt@plt>
    1899:	3c ff                	cmp    $0xff,%al
    189b:	74 65                	je     1902 <main+0x176>
    189d:	0f be c8             	movsbl %al,%ecx
    18a0:	83 e8 61             	sub    $0x61,%eax
    18a3:	3c 10                	cmp    $0x10,%al
    18a5:	77 3b                	ja     18e2 <main+0x156>
    18a7:	0f b6 c0             	movzbl %al,%eax
    18aa:	48 8d 15 bf 29 00 00 	lea    0x29bf(%rip),%rdx        # 4270 <_IO_stdin_used+0x270>
    18b1:	48 63 04 82          	movslq (%rdx,%rax,4),%rax
    18b5:	48 01 d0             	add    %rdx,%rax
    18b8:	3e ff e0             	notrack jmpq *%rax
    18bb:	ba 0a 00 00 00       	mov    $0xa,%edx
    18c0:	be 00 00 00 00       	mov    $0x0,%esi
    18c5:	48 8b 3d bc 5a 00 00 	mov    0x5abc(%rip),%rdi        # 7388 <optarg@@GLIBC_2.2.5>
    18cc:	e8 7f fa ff ff       	callq  1350 <strtol@plt>
    18d1:	41 89 c5             	mov    %eax,%r13d
    18d4:	eb b6                	jmp    188c <main+0x100>
    18d6:	c7 05 88 5a 00 00 00 	movl   $0x0,0x5a88(%rip)        # 7368 <notify>
    18dd:	00 00 00 
    18e0:	eb aa                	jmp    188c <main+0x100>
    18e2:	89 ca                	mov    %ecx,%edx
    18e4:	48 8d 35 64 29 00 00 	lea    0x2964(%rip),%rsi        # 424f <_IO_stdin_used+0x24f>
    18eb:	bf 01 00 00 00       	mov    $0x1,%edi
    18f0:	b8 00 00 00 00       	mov    $0x0,%eax
    18f5:	e8 b6 fa ff ff       	callq  13b0 <__printf_chk@plt>
    18fa:	48 8b 3b             	mov    (%rbx),%rdi
    18fd:	e8 47 fc ff ff       	callq  1549 <usage>
    1902:	be 00 00 00 00       	mov    $0x0,%esi
    1907:	44 89 ef             	mov    %r13d,%edi
    190a:	e8 d8 fc ff ff       	callq  15e7 <initialize_target>
    190f:	83 3d d2 5a 00 00 00 	cmpl   $0x0,0x5ad2(%rip)        # 73e8 <is_checker>
    1916:	74 09                	je     1921 <main+0x195>
    1918:	44 39 35 c1 5a 00 00 	cmp    %r14d,0x5ac1(%rip)        # 73e0 <authkey>
    191f:	75 36                	jne    1957 <main+0x1cb>
    1921:	8b 15 bd 5a 00 00    	mov    0x5abd(%rip),%edx        # 73e4 <cookie>
    1927:	48 8d 35 34 29 00 00 	lea    0x2934(%rip),%rsi        # 4262 <_IO_stdin_used+0x262>
    192e:	bf 01 00 00 00       	mov    $0x1,%edi
    1933:	b8 00 00 00 00       	mov    $0x0,%eax
    1938:	e8 73 fa ff ff       	callq  13b0 <__printf_chk@plt>
    193d:	48 8b 3d 1c 5a 00 00 	mov    0x5a1c(%rip),%rdi        # 7360 <buf_offset>
    1944:	e8 05 0d 00 00       	callq  264e <stable_launch>
    1949:	b8 00 00 00 00       	mov    $0x0,%eax
    194e:	5b                   	pop    %rbx
    194f:	5d                   	pop    %rbp
    1950:	41 5c                	pop    %r12
    1952:	41 5d                	pop    %r13
    1954:	41 5e                	pop    %r14
    1956:	c3                   	retq   
    1957:	44 89 f2             	mov    %r14d,%edx
    195a:	48 8d 35 27 28 00 00 	lea    0x2827(%rip),%rsi        # 4188 <_IO_stdin_used+0x188>
    1961:	bf 01 00 00 00       	mov    $0x1,%edi
    1966:	b8 00 00 00 00       	mov    $0x0,%eax
    196b:	e8 40 fa ff ff       	callq  13b0 <__printf_chk@plt>
    1970:	b8 00 00 00 00       	mov    $0x0,%eax
    1975:	e8 c3 06 00 00       	callq  203d <check_fail>
    197a:	eb a5                	jmp    1921 <main+0x195>

000000000000197c <scramble>:
    197c:	f3 0f 1e fa          	endbr64 
    1980:	48 83 ec 38          	sub    $0x38,%rsp
    1984:	64 48 8b 04 25 28 00 	mov    %fs:0x28,%rax
    198b:	00 00 
    198d:	48 89 44 24 28       	mov    %rax,0x28(%rsp)
    1992:	31 c0                	xor    %eax,%eax
    1994:	83 f8 09             	cmp    $0x9,%eax
    1997:	77 12                	ja     19ab <scramble+0x2f>
    1999:	69 d0 7f 79 00 00    	imul   $0x797f,%eax,%edx
    199f:	01 fa                	add    %edi,%edx
    19a1:	89 c1                	mov    %eax,%ecx
    19a3:	89 14 8c             	mov    %edx,(%rsp,%rcx,4)
    19a6:	83 c0 01             	add    $0x1,%eax
    19a9:	eb e9                	jmp    1994 <scramble+0x18>
    19ab:	8b 44 24 14          	mov    0x14(%rsp),%eax
    19af:	69 c0 44 a6 00 00    	imul   $0xa644,%eax,%eax
    19b5:	89 44 24 14          	mov    %eax,0x14(%rsp)
    19b9:	8b 44 24 20          	mov    0x20(%rsp),%eax
    19bd:	69 c0 d5 50 00 00    	imul   $0x50d5,%eax,%eax
    19c3:	89 44 24 20          	mov    %eax,0x20(%rsp)
    19c7:	8b 44 24 1c          	mov    0x1c(%rsp),%eax
    19cb:	69 c0 00 3a 00 00    	imul   $0x3a00,%eax,%eax
    19d1:	89 44 24 1c          	mov    %eax,0x1c(%rsp)
    19d5:	8b 44 24 1c          	mov    0x1c(%rsp),%eax
    19d9:	69 c0 29 9f 00 00    	imul   $0x9f29,%eax,%eax
    19df:	89 44 24 1c          	mov    %eax,0x1c(%rsp)
    19e3:	8b 44 24 24          	mov    0x24(%rsp),%eax
    19e7:	69 c0 96 16 00 00    	imul   $0x1696,%eax,%eax
    19ed:	89 44 24 24          	mov    %eax,0x24(%rsp)
    19f1:	8b 44 24 0c          	mov    0xc(%rsp),%eax
    19f5:	69 c0 4d 29 00 00    	imul   $0x294d,%eax,%eax
    19fb:	89 44 24 0c          	mov    %eax,0xc(%rsp)
    19ff:	8b 44 24 24          	mov    0x24(%rsp),%eax
    1a03:	69 c0 7d c8 00 00    	imul   $0xc87d,%eax,%eax
    1a09:	89 44 24 24          	mov    %eax,0x24(%rsp)
    1a0d:	8b 44 24 0c          	mov    0xc(%rsp),%eax
    1a11:	69 c0 7e 90 00 00    	imul   $0x907e,%eax,%eax
    1a17:	89 44 24 0c          	mov    %eax,0xc(%rsp)
    1a1b:	8b 04 24             	mov    (%rsp),%eax
    1a1e:	69 c0 5f c3 00 00    	imul   $0xc35f,%eax,%eax
    1a24:	89 04 24             	mov    %eax,(%rsp)
    1a27:	8b 44 24 08          	mov    0x8(%rsp),%eax
    1a2b:	69 c0 32 43 00 00    	imul   $0x4332,%eax,%eax
    1a31:	89 44 24 08          	mov    %eax,0x8(%rsp)
    1a35:	8b 44 24 14          	mov    0x14(%rsp),%eax
    1a39:	69 c0 d9 3f 00 00    	imul   $0x3fd9,%eax,%eax
    1a3f:	89 44 24 14          	mov    %eax,0x14(%rsp)
    1a43:	8b 44 24 04          	mov    0x4(%rsp),%eax
    1a47:	69 c0 d7 49 00 00    	imul   $0x49d7,%eax,%eax
    1a4d:	89 44 24 04          	mov    %eax,0x4(%rsp)
    1a51:	8b 04 24             	mov    (%rsp),%eax
    1a54:	69 c0 7a 8c 00 00    	imul   $0x8c7a,%eax,%eax
    1a5a:	89 04 24             	mov    %eax,(%rsp)
    1a5d:	8b 44 24 0c          	mov    0xc(%rsp),%eax
    1a61:	69 c0 f8 0e 00 00    	imul   $0xef8,%eax,%eax
    1a67:	89 44 24 0c          	mov    %eax,0xc(%rsp)
    1a6b:	8b 44 24 18          	mov    0x18(%rsp),%eax
    1a6f:	69 c0 2d 12 00 00    	imul   $0x122d,%eax,%eax
    1a75:	89 44 24 18          	mov    %eax,0x18(%rsp)
    1a79:	8b 44 24 08          	mov    0x8(%rsp),%eax
    1a7d:	69 c0 16 c6 00 00    	imul   $0xc616,%eax,%eax
    1a83:	89 44 24 08          	mov    %eax,0x8(%rsp)
    1a87:	8b 44 24 18          	mov    0x18(%rsp),%eax
    1a8b:	69 c0 41 48 00 00    	imul   $0x4841,%eax,%eax
    1a91:	89 44 24 18          	mov    %eax,0x18(%rsp)
    1a95:	8b 44 24 1c          	mov    0x1c(%rsp),%eax
    1a99:	69 c0 44 92 00 00    	imul   $0x9244,%eax,%eax
    1a9f:	89 44 24 1c          	mov    %eax,0x1c(%rsp)
    1aa3:	8b 44 24 1c          	mov    0x1c(%rsp),%eax
    1aa7:	69 c0 19 5f 00 00    	imul   $0x5f19,%eax,%eax
    1aad:	89 44 24 1c          	mov    %eax,0x1c(%rsp)
    1ab1:	8b 44 24 1c          	mov    0x1c(%rsp),%eax
    1ab5:	69 c0 8d 3a 00 00    	imul   $0x3a8d,%eax,%eax
    1abb:	89 44 24 1c          	mov    %eax,0x1c(%rsp)
    1abf:	8b 44 24 18          	mov    0x18(%rsp),%eax
    1ac3:	69 c0 30 4a 00 00    	imul   $0x4a30,%eax,%eax
    1ac9:	89 44 24 18          	mov    %eax,0x18(%rsp)
    1acd:	8b 44 24 14          	mov    0x14(%rsp),%eax
    1ad1:	69 c0 74 f2 00 00    	imul   $0xf274,%eax,%eax
    1ad7:	89 44 24 14          	mov    %eax,0x14(%rsp)
    1adb:	8b 44 24 10          	mov    0x10(%rsp),%eax
    1adf:	69 c0 04 82 00 00    	imul   $0x8204,%eax,%eax
    1ae5:	89 44 24 10          	mov    %eax,0x10(%rsp)
    1ae9:	8b 44 24 14          	mov    0x14(%rsp),%eax
    1aed:	69 c0 82 d5 00 00    	imul   $0xd582,%eax,%eax
    1af3:	89 44 24 14          	mov    %eax,0x14(%rsp)
    1af7:	8b 44 24 14          	mov    0x14(%rsp),%eax
    1afb:	69 c0 cc 01 00 00    	imul   $0x1cc,%eax,%eax
    1b01:	89 44 24 14          	mov    %eax,0x14(%rsp)
    1b05:	8b 44 24 18          	mov    0x18(%rsp),%eax
    1b09:	69 c0 77 0d 00 00    	imul   $0xd77,%eax,%eax
    1b0f:	89 44 24 18          	mov    %eax,0x18(%rsp)
    1b13:	8b 44 24 18          	mov    0x18(%rsp),%eax
    1b17:	69 c0 50 d8 00 00    	imul   $0xd850,%eax,%eax
    1b1d:	89 44 24 18          	mov    %eax,0x18(%rsp)
    1b21:	8b 44 24 0c          	mov    0xc(%rsp),%eax
    1b25:	69 c0 45 02 00 00    	imul   $0x245,%eax,%eax
    1b2b:	89 44 24 0c          	mov    %eax,0xc(%rsp)
    1b2f:	8b 44 24 14          	mov    0x14(%rsp),%eax
    1b33:	69 c0 5c b6 00 00    	imul   $0xb65c,%eax,%eax
    1b39:	89 44 24 14          	mov    %eax,0x14(%rsp)
    1b3d:	8b 44 24 08          	mov    0x8(%rsp),%eax
    1b41:	69 c0 62 b1 00 00    	imul   $0xb162,%eax,%eax
    1b47:	89 44 24 08          	mov    %eax,0x8(%rsp)
    1b4b:	8b 44 24 04          	mov    0x4(%rsp),%eax
    1b4f:	69 c0 2f b8 00 00    	imul   $0xb82f,%eax,%eax
    1b55:	89 44 24 04          	mov    %eax,0x4(%rsp)
    1b59:	8b 44 24 18          	mov    0x18(%rsp),%eax
    1b5d:	69 c0 fc 80 00 00    	imul   $0x80fc,%eax,%eax
    1b63:	89 44 24 18          	mov    %eax,0x18(%rsp)
    1b67:	8b 44 24 20          	mov    0x20(%rsp),%eax
    1b6b:	69 c0 65 8e 00 00    	imul   $0x8e65,%eax,%eax
    1b71:	89 44 24 20          	mov    %eax,0x20(%rsp)
    1b75:	8b 04 24             	mov    (%rsp),%eax
    1b78:	69 c0 b2 82 00 00    	imul   $0x82b2,%eax,%eax
    1b7e:	89 04 24             	mov    %eax,(%rsp)
    1b81:	8b 44 24 0c          	mov    0xc(%rsp),%eax
    1b85:	69 c0 ad 44 00 00    	imul   $0x44ad,%eax,%eax
    1b8b:	89 44 24 0c          	mov    %eax,0xc(%rsp)
    1b8f:	8b 44 24 14          	mov    0x14(%rsp),%eax
    1b93:	69 c0 2e 63 00 00    	imul   $0x632e,%eax,%eax
    1b99:	89 44 24 14          	mov    %eax,0x14(%rsp)
    1b9d:	8b 04 24             	mov    (%rsp),%eax
    1ba0:	69 c0 19 21 00 00    	imul   $0x2119,%eax,%eax
    1ba6:	89 04 24             	mov    %eax,(%rsp)
    1ba9:	8b 44 24 1c          	mov    0x1c(%rsp),%eax
    1bad:	69 c0 8a a1 00 00    	imul   $0xa18a,%eax,%eax
    1bb3:	89 44 24 1c          	mov    %eax,0x1c(%rsp)
    1bb7:	8b 44 24 10          	mov    0x10(%rsp),%eax
    1bbb:	69 c0 95 d8 00 00    	imul   $0xd895,%eax,%eax
    1bc1:	89 44 24 10          	mov    %eax,0x10(%rsp)
    1bc5:	8b 44 24 0c          	mov    0xc(%rsp),%eax
    1bc9:	69 c0 81 e8 00 00    	imul   $0xe881,%eax,%eax
    1bcf:	89 44 24 0c          	mov    %eax,0xc(%rsp)
    1bd3:	8b 44 24 10          	mov    0x10(%rsp),%eax
    1bd7:	69 c0 c1 8f 00 00    	imul   $0x8fc1,%eax,%eax
    1bdd:	89 44 24 10          	mov    %eax,0x10(%rsp)
    1be1:	8b 44 24 08          	mov    0x8(%rsp),%eax
    1be5:	69 c0 07 1c 00 00    	imul   $0x1c07,%eax,%eax
    1beb:	89 44 24 08          	mov    %eax,0x8(%rsp)
    1bef:	8b 04 24             	mov    (%rsp),%eax
    1bf2:	69 c0 47 4d 00 00    	imul   $0x4d47,%eax,%eax
    1bf8:	89 04 24             	mov    %eax,(%rsp)
    1bfb:	8b 44 24 04          	mov    0x4(%rsp),%eax
    1bff:	69 c0 dd cc 00 00    	imul   $0xccdd,%eax,%eax
    1c05:	89 44 24 04          	mov    %eax,0x4(%rsp)
    1c09:	8b 44 24 0c          	mov    0xc(%rsp),%eax
    1c0d:	69 c0 89 2f 00 00    	imul   $0x2f89,%eax,%eax
    1c13:	89 44 24 0c          	mov    %eax,0xc(%rsp)
    1c17:	8b 04 24             	mov    (%rsp),%eax
    1c1a:	69 c0 2d cc 00 00    	imul   $0xcc2d,%eax,%eax
    1c20:	89 04 24             	mov    %eax,(%rsp)
    1c23:	8b 44 24 04          	mov    0x4(%rsp),%eax
    1c27:	69 c0 b8 f5 00 00    	imul   $0xf5b8,%eax,%eax
    1c2d:	89 44 24 04          	mov    %eax,0x4(%rsp)
    1c31:	8b 44 24 14          	mov    0x14(%rsp),%eax
    1c35:	69 c0 29 e8 00 00    	imul   $0xe829,%eax,%eax
    1c3b:	89 44 24 14          	mov    %eax,0x14(%rsp)
    1c3f:	8b 44 24 14          	mov    0x14(%rsp),%eax
    1c43:	69 c0 69 60 00 00    	imul   $0x6069,%eax,%eax
    1c49:	89 44 24 14          	mov    %eax,0x14(%rsp)
    1c4d:	8b 44 24 20          	mov    0x20(%rsp),%eax
    1c51:	69 c0 9c 71 00 00    	imul   $0x719c,%eax,%eax
    1c57:	89 44 24 20          	mov    %eax,0x20(%rsp)
    1c5b:	8b 44 24 20          	mov    0x20(%rsp),%eax
    1c5f:	69 c0 1a 28 00 00    	imul   $0x281a,%eax,%eax
    1c65:	89 44 24 20          	mov    %eax,0x20(%rsp)
    1c69:	8b 44 24 24          	mov    0x24(%rsp),%eax
    1c6d:	69 c0 f3 33 00 00    	imul   $0x33f3,%eax,%eax
    1c73:	89 44 24 24          	mov    %eax,0x24(%rsp)
    1c77:	8b 44 24 1c          	mov    0x1c(%rsp),%eax
    1c7b:	69 c0 6c 2a 00 00    	imul   $0x2a6c,%eax,%eax
    1c81:	89 44 24 1c          	mov    %eax,0x1c(%rsp)
    1c85:	8b 44 24 1c          	mov    0x1c(%rsp),%eax
    1c89:	69 c0 51 ec 00 00    	imul   $0xec51,%eax,%eax
    1c8f:	89 44 24 1c          	mov    %eax,0x1c(%rsp)
    1c93:	8b 44 24 18          	mov    0x18(%rsp),%eax
    1c97:	69 c0 8a 4c 00 00    	imul   $0x4c8a,%eax,%eax
    1c9d:	89 44 24 18          	mov    %eax,0x18(%rsp)
    1ca1:	8b 44 24 0c          	mov    0xc(%rsp),%eax
    1ca5:	69 c0 63 dd 00 00    	imul   $0xdd63,%eax,%eax
    1cab:	89 44 24 0c          	mov    %eax,0xc(%rsp)
    1caf:	8b 44 24 08          	mov    0x8(%rsp),%eax
    1cb3:	69 c0 ca ca 00 00    	imul   $0xcaca,%eax,%eax
    1cb9:	89 44 24 08          	mov    %eax,0x8(%rsp)
    1cbd:	8b 44 24 14          	mov    0x14(%rsp),%eax
    1cc1:	69 c0 5d 44 00 00    	imul   $0x445d,%eax,%eax
    1cc7:	89 44 24 14          	mov    %eax,0x14(%rsp)
    1ccb:	8b 44 24 10          	mov    0x10(%rsp),%eax
    1ccf:	69 c0 b7 17 00 00    	imul   $0x17b7,%eax,%eax
    1cd5:	89 44 24 10          	mov    %eax,0x10(%rsp)
    1cd9:	8b 44 24 08          	mov    0x8(%rsp),%eax
    1cdd:	69 c0 b5 1b 00 00    	imul   $0x1bb5,%eax,%eax
    1ce3:	89 44 24 08          	mov    %eax,0x8(%rsp)
    1ce7:	8b 44 24 10          	mov    0x10(%rsp),%eax
    1ceb:	69 c0 7a 8f 00 00    	imul   $0x8f7a,%eax,%eax
    1cf1:	89 44 24 10          	mov    %eax,0x10(%rsp)
    1cf5:	8b 44 24 18          	mov    0x18(%rsp),%eax
    1cf9:	69 c0 f9 2e 00 00    	imul   $0x2ef9,%eax,%eax
    1cff:	89 44 24 18          	mov    %eax,0x18(%rsp)
    1d03:	8b 44 24 10          	mov    0x10(%rsp),%eax
    1d07:	69 c0 0c 35 00 00    	imul   $0x350c,%eax,%eax
    1d0d:	89 44 24 10          	mov    %eax,0x10(%rsp)
    1d11:	8b 44 24 04          	mov    0x4(%rsp),%eax
    1d15:	69 c0 50 09 00 00    	imul   $0x950,%eax,%eax
    1d1b:	89 44 24 04          	mov    %eax,0x4(%rsp)
    1d1f:	8b 44 24 08          	mov    0x8(%rsp),%eax
    1d23:	69 c0 fd 81 00 00    	imul   $0x81fd,%eax,%eax
    1d29:	89 44 24 08          	mov    %eax,0x8(%rsp)
    1d2d:	8b 44 24 04          	mov    0x4(%rsp),%eax
    1d31:	69 c0 8c 3a 00 00    	imul   $0x3a8c,%eax,%eax
    1d37:	89 44 24 04          	mov    %eax,0x4(%rsp)
    1d3b:	8b 44 24 14          	mov    0x14(%rsp),%eax
    1d3f:	69 c0 b6 4f 00 00    	imul   $0x4fb6,%eax,%eax
    1d45:	89 44 24 14          	mov    %eax,0x14(%rsp)
    1d49:	8b 04 24             	mov    (%rsp),%eax
    1d4c:	69 c0 4a f3 00 00    	imul   $0xf34a,%eax,%eax
    1d52:	89 04 24             	mov    %eax,(%rsp)
    1d55:	8b 44 24 04          	mov    0x4(%rsp),%eax
    1d59:	69 c0 fd 43 00 00    	imul   $0x43fd,%eax,%eax
    1d5f:	89 44 24 04          	mov    %eax,0x4(%rsp)
    1d63:	8b 44 24 1c          	mov    0x1c(%rsp),%eax
    1d67:	69 c0 24 7d 00 00    	imul   $0x7d24,%eax,%eax
    1d6d:	89 44 24 1c          	mov    %eax,0x1c(%rsp)
    1d71:	8b 44 24 24          	mov    0x24(%rsp),%eax
    1d75:	69 c0 6d b4 00 00    	imul   $0xb46d,%eax,%eax
    1d7b:	89 44 24 24          	mov    %eax,0x24(%rsp)
    1d7f:	b8 00 00 00 00       	mov    $0x0,%eax
    1d84:	ba 00 00 00 00       	mov    $0x0,%edx
    1d89:	83 f8 09             	cmp    $0x9,%eax
    1d8c:	77 0c                	ja     1d9a <scramble+0x41e>
    1d8e:	89 c1                	mov    %eax,%ecx
    1d90:	8b 0c 8c             	mov    (%rsp,%rcx,4),%ecx
    1d93:	01 ca                	add    %ecx,%edx
    1d95:	83 c0 01             	add    $0x1,%eax
    1d98:	eb ef                	jmp    1d89 <scramble+0x40d>
    1d9a:	48 8b 44 24 28       	mov    0x28(%rsp),%rax
    1d9f:	64 48 33 04 25 28 00 	xor    %fs:0x28,%rax
    1da6:	00 00 
    1da8:	75 07                	jne    1db1 <scramble+0x435>
    1daa:	89 d0                	mov    %edx,%eax
    1dac:	48 83 c4 38          	add    $0x38,%rsp
    1db0:	c3                   	retq   
    1db1:	e8 0a f5 ff ff       	callq  12c0 <__stack_chk_fail@plt>

0000000000001db6 <getbuf>:
    1db6:	f3 0f 1e fa          	endbr64 
    1dba:	48 83 ec 28          	sub    $0x28,%rsp
    1dbe:	48 89 e7             	mov    %rsp,%rdi
    1dc1:	e8 b5 02 00 00       	callq  207b <Gets>
    1dc6:	b8 01 00 00 00       	mov    $0x1,%eax
    1dcb:	48 83 c4 28          	add    $0x28,%rsp
    1dcf:	c3                   	retq   

0000000000001dd0 <touch1>:
    1dd0:	f3 0f 1e fa          	endbr64 
    1dd4:	50                   	push   %rax
    1dd5:	58                   	pop    %rax
    1dd6:	48 83 ec 08          	sub    $0x8,%rsp
    1dda:	c7 05 f8 55 00 00 01 	movl   $0x1,0x55f8(%rip)        # 73dc <vlevel>
    1de1:	00 00 00 
    1de4:	48 8d 3d f2 24 00 00 	lea    0x24f2(%rip),%rdi        # 42dd <_IO_stdin_used+0x2dd>
    1deb:	e8 b0 f4 ff ff       	callq  12a0 <puts@plt>
    1df0:	bf 01 00 00 00       	mov    $0x1,%edi
    1df5:	e8 f4 04 00 00       	callq  22ee <validate>
    1dfa:	bf 00 00 00 00       	mov    $0x0,%edi
    1dff:	e8 fc f5 ff ff       	callq  1400 <exit@plt>

0000000000001e04 <touch2>:
    1e04:	f3 0f 1e fa          	endbr64 
    1e08:	50                   	push   %rax
    1e09:	58                   	pop    %rax
    1e0a:	48 83 ec 08          	sub    $0x8,%rsp
    1e0e:	89 fa                	mov    %edi,%edx
    1e10:	c7 05 c2 55 00 00 02 	movl   $0x2,0x55c2(%rip)        # 73dc <vlevel>
    1e17:	00 00 00 
    1e1a:	39 3d c4 55 00 00    	cmp    %edi,0x55c4(%rip)        # 73e4 <cookie>
    1e20:	74 2a                	je     1e4c <touch2+0x48>
    1e22:	48 8d 35 ff 24 00 00 	lea    0x24ff(%rip),%rsi        # 4328 <_IO_stdin_used+0x328>
    1e29:	bf 01 00 00 00       	mov    $0x1,%edi
    1e2e:	b8 00 00 00 00       	mov    $0x0,%eax
    1e33:	e8 78 f5 ff ff       	callq  13b0 <__printf_chk@plt>
    1e38:	bf 02 00 00 00       	mov    $0x2,%edi
    1e3d:	e8 80 05 00 00       	callq  23c2 <fail>
    1e42:	bf 00 00 00 00       	mov    $0x0,%edi
    1e47:	e8 b4 f5 ff ff       	callq  1400 <exit@plt>
    1e4c:	48 8d 35 ad 24 00 00 	lea    0x24ad(%rip),%rsi        # 4300 <_IO_stdin_used+0x300>
    1e53:	bf 01 00 00 00       	mov    $0x1,%edi
    1e58:	b8 00 00 00 00       	mov    $0x0,%eax
    1e5d:	e8 4e f5 ff ff       	callq  13b0 <__printf_chk@plt>
    1e62:	bf 02 00 00 00       	mov    $0x2,%edi
    1e67:	e8 82 04 00 00       	callq  22ee <validate>
    1e6c:	eb d4                	jmp    1e42 <touch2+0x3e>

0000000000001e6e <hexmatch>:
    1e6e:	f3 0f 1e fa          	endbr64 
    1e72:	41 55                	push   %r13
    1e74:	41 54                	push   %r12
    1e76:	55                   	push   %rbp
    1e77:	53                   	push   %rbx
    1e78:	48 81 ec 88 00 00 00 	sub    $0x88,%rsp
    1e7f:	89 fd                	mov    %edi,%ebp
    1e81:	48 89 f3             	mov    %rsi,%rbx
    1e84:	41 bc 28 00 00 00    	mov    $0x28,%r12d
    1e8a:	64 49 8b 04 24       	mov    %fs:(%r12),%rax
    1e8f:	48 89 44 24 78       	mov    %rax,0x78(%rsp)
    1e94:	31 c0                	xor    %eax,%eax
    1e96:	e8 e5 f4 ff ff       	callq  1380 <random@plt>
    1e9b:	48 89 c1             	mov    %rax,%rcx
    1e9e:	48 ba 0b d7 a3 70 3d 	movabs $0xa3d70a3d70a3d70b,%rdx
    1ea5:	0a d7 a3 
    1ea8:	48 f7 ea             	imul   %rdx
    1eab:	48 01 ca             	add    %rcx,%rdx
    1eae:	48 c1 fa 06          	sar    $0x6,%rdx
    1eb2:	48 89 c8             	mov    %rcx,%rax
    1eb5:	48 c1 f8 3f          	sar    $0x3f,%rax
    1eb9:	48 29 c2             	sub    %rax,%rdx
    1ebc:	48 8d 04 92          	lea    (%rdx,%rdx,4),%rax
    1ec0:	48 8d 04 80          	lea    (%rax,%rax,4),%rax
    1ec4:	48 c1 e0 02          	shl    $0x2,%rax
    1ec8:	48 29 c1             	sub    %rax,%rcx
    1ecb:	4c 8d 2c 0c          	lea    (%rsp,%rcx,1),%r13
    1ecf:	41 89 e8             	mov    %ebp,%r8d
    1ed2:	48 8d 0d 21 24 00 00 	lea    0x2421(%rip),%rcx        # 42fa <_IO_stdin_used+0x2fa>
    1ed9:	48 c7 c2 ff ff ff ff 	mov    $0xffffffffffffffff,%rdx
    1ee0:	be 01 00 00 00       	mov    $0x1,%esi
    1ee5:	4c 89 ef             	mov    %r13,%rdi
    1ee8:	b8 00 00 00 00       	mov    $0x0,%eax
    1eed:	e8 4e f5 ff ff       	callq  1440 <__sprintf_chk@plt>
    1ef2:	ba 09 00 00 00       	mov    $0x9,%edx
    1ef7:	4c 89 ee             	mov    %r13,%rsi
    1efa:	48 89 df             	mov    %rbx,%rdi
    1efd:	e8 7e f3 ff ff       	callq  1280 <strncmp@plt>
    1f02:	85 c0                	test   %eax,%eax
    1f04:	0f 94 c0             	sete   %al
    1f07:	48 8b 5c 24 78       	mov    0x78(%rsp),%rbx
    1f0c:	64 49 33 1c 24       	xor    %fs:(%r12),%rbx
    1f11:	75 11                	jne    1f24 <hexmatch+0xb6>
    1f13:	0f b6 c0             	movzbl %al,%eax
    1f16:	48 81 c4 88 00 00 00 	add    $0x88,%rsp
    1f1d:	5b                   	pop    %rbx
    1f1e:	5d                   	pop    %rbp
    1f1f:	41 5c                	pop    %r12
    1f21:	41 5d                	pop    %r13
    1f23:	c3                   	retq   
    1f24:	e8 97 f3 ff ff       	callq  12c0 <__stack_chk_fail@plt>

0000000000001f29 <touch3>:
    1f29:	f3 0f 1e fa          	endbr64 
    1f2d:	53                   	push   %rbx
    1f2e:	48 89 fb             	mov    %rdi,%rbx
    1f31:	c7 05 a1 54 00 00 03 	movl   $0x3,0x54a1(%rip)        # 73dc <vlevel>
    1f38:	00 00 00 
    1f3b:	48 89 fe             	mov    %rdi,%rsi
    1f3e:	8b 3d a0 54 00 00    	mov    0x54a0(%rip),%edi        # 73e4 <cookie>
    1f44:	e8 25 ff ff ff       	callq  1e6e <hexmatch>
    1f49:	85 c0                	test   %eax,%eax
    1f4b:	74 2d                	je     1f7a <touch3+0x51>
    1f4d:	48 89 da             	mov    %rbx,%rdx
    1f50:	48 8d 35 f9 23 00 00 	lea    0x23f9(%rip),%rsi        # 4350 <_IO_stdin_used+0x350>
    1f57:	bf 01 00 00 00       	mov    $0x1,%edi
    1f5c:	b8 00 00 00 00       	mov    $0x0,%eax
    1f61:	e8 4a f4 ff ff       	callq  13b0 <__printf_chk@plt>
    1f66:	bf 03 00 00 00       	mov    $0x3,%edi
    1f6b:	e8 7e 03 00 00       	callq  22ee <validate>
    1f70:	bf 00 00 00 00       	mov    $0x0,%edi
    1f75:	e8 86 f4 ff ff       	callq  1400 <exit@plt>
    1f7a:	48 89 da             	mov    %rbx,%rdx
    1f7d:	48 8d 35 f4 23 00 00 	lea    0x23f4(%rip),%rsi        # 4378 <_IO_stdin_used+0x378>
    1f84:	bf 01 00 00 00       	mov    $0x1,%edi
    1f89:	b8 00 00 00 00       	mov    $0x0,%eax
    1f8e:	e8 1d f4 ff ff       	callq  13b0 <__printf_chk@plt>
    1f93:	bf 03 00 00 00       	mov    $0x3,%edi
    1f98:	e8 25 04 00 00       	callq  23c2 <fail>
    1f9d:	eb d1                	jmp    1f70 <touch3+0x47>

0000000000001f9f <test>:
    1f9f:	f3 0f 1e fa          	endbr64 
    1fa3:	48 83 ec 08          	sub    $0x8,%rsp
    1fa7:	b8 00 00 00 00       	mov    $0x0,%eax
    1fac:	e8 05 fe ff ff       	callq  1db6 <getbuf>
    1fb1:	89 c2                	mov    %eax,%edx
    1fb3:	48 8d 35 e6 23 00 00 	lea    0x23e6(%rip),%rsi        # 43a0 <_IO_stdin_used+0x3a0>
    1fba:	bf 01 00 00 00       	mov    $0x1,%edi
    1fbf:	b8 00 00 00 00       	mov    $0x0,%eax
    1fc4:	e8 e7 f3 ff ff       	callq  13b0 <__printf_chk@plt>
    1fc9:	48 83 c4 08          	add    $0x8,%rsp
    1fcd:	c3                   	retq   

0000000000001fce <save_char>:
    1fce:	8b 05 30 60 00 00    	mov    0x6030(%rip),%eax        # 8004 <gets_cnt>
    1fd4:	3d ff 03 00 00       	cmp    $0x3ff,%eax
    1fd9:	7f 4a                	jg     2025 <save_char+0x57>
    1fdb:	89 f9                	mov    %edi,%ecx
    1fdd:	c0 e9 04             	shr    $0x4,%cl
    1fe0:	8d 14 40             	lea    (%rax,%rax,2),%edx
    1fe3:	4c 8d 05 d6 26 00 00 	lea    0x26d6(%rip),%r8        # 46c0 <trans_char>
    1fea:	83 e1 0f             	and    $0xf,%ecx
    1fed:	45 0f b6 0c 08       	movzbl (%r8,%rcx,1),%r9d
    1ff2:	48 8d 0d 07 54 00 00 	lea    0x5407(%rip),%rcx        # 7400 <gets_buf>
    1ff9:	48 63 f2             	movslq %edx,%rsi
    1ffc:	44 88 0c 31          	mov    %r9b,(%rcx,%rsi,1)
    2000:	8d 72 01             	lea    0x1(%rdx),%esi
    2003:	83 e7 0f             	and    $0xf,%edi
    2006:	41 0f b6 3c 38       	movzbl (%r8,%rdi,1),%edi
    200b:	48 63 f6             	movslq %esi,%rsi
    200e:	40 88 3c 31          	mov    %dil,(%rcx,%rsi,1)
    2012:	83 c2 02             	add    $0x2,%edx
    2015:	48 63 d2             	movslq %edx,%rdx
    2018:	c6 04 11 20          	movb   $0x20,(%rcx,%rdx,1)
    201c:	83 c0 01             	add    $0x1,%eax
    201f:	89 05 df 5f 00 00    	mov    %eax,0x5fdf(%rip)        # 8004 <gets_cnt>
    2025:	c3                   	retq   

0000000000002026 <save_term>:
    2026:	8b 05 d8 5f 00 00    	mov    0x5fd8(%rip),%eax        # 8004 <gets_cnt>
    202c:	8d 04 40             	lea    (%rax,%rax,2),%eax
    202f:	48 98                	cltq   
    2031:	48 8d 15 c8 53 00 00 	lea    0x53c8(%rip),%rdx        # 7400 <gets_buf>
    2038:	c6 04 02 00          	movb   $0x0,(%rdx,%rax,1)
    203c:	c3                   	retq   

000000000000203d <check_fail>:
    203d:	f3 0f 1e fa          	endbr64 
    2041:	50                   	push   %rax
    2042:	58                   	pop    %rax
    2043:	48 83 ec 08          	sub    $0x8,%rsp
    2047:	0f be 15 ba 5f 00 00 	movsbl 0x5fba(%rip),%edx        # 8008 <target_prefix>
    204e:	4c 8d 05 ab 53 00 00 	lea    0x53ab(%rip),%r8        # 7400 <gets_buf>
    2055:	8b 0d 7d 53 00 00    	mov    0x537d(%rip),%ecx        # 73d8 <check_level>
    205b:	48 8d 35 61 23 00 00 	lea    0x2361(%rip),%rsi        # 43c3 <_IO_stdin_used+0x3c3>
    2062:	bf 01 00 00 00       	mov    $0x1,%edi
    2067:	b8 00 00 00 00       	mov    $0x0,%eax
    206c:	e8 3f f3 ff ff       	callq  13b0 <__printf_chk@plt>
    2071:	bf 01 00 00 00       	mov    $0x1,%edi
    2076:	e8 85 f3 ff ff       	callq  1400 <exit@plt>

000000000000207b <Gets>:
    207b:	f3 0f 1e fa          	endbr64 
    207f:	41 54                	push   %r12
    2081:	55                   	push   %rbp
    2082:	53                   	push   %rbx
    2083:	49 89 fc             	mov    %rdi,%r12
    2086:	c7 05 74 5f 00 00 00 	movl   $0x0,0x5f74(%rip)        # 8004 <gets_cnt>
    208d:	00 00 00 
    2090:	48 89 fb             	mov    %rdi,%rbx
    2093:	48 8b 3d 36 53 00 00 	mov    0x5336(%rip),%rdi        # 73d0 <infile>
    209a:	e8 91 f3 ff ff       	callq  1430 <getc@plt>
    209f:	83 f8 ff             	cmp    $0xffffffff,%eax
    20a2:	74 18                	je     20bc <Gets+0x41>
    20a4:	83 f8 0a             	cmp    $0xa,%eax
    20a7:	74 13                	je     20bc <Gets+0x41>
    20a9:	48 8d 6b 01          	lea    0x1(%rbx),%rbp
    20ad:	88 03                	mov    %al,(%rbx)
    20af:	0f b6 f8             	movzbl %al,%edi
    20b2:	e8 17 ff ff ff       	callq  1fce <save_char>
    20b7:	48 89 eb             	mov    %rbp,%rbx
    20ba:	eb d7                	jmp    2093 <Gets+0x18>
    20bc:	c6 03 00             	movb   $0x0,(%rbx)
    20bf:	b8 00 00 00 00       	mov    $0x0,%eax
    20c4:	e8 5d ff ff ff       	callq  2026 <save_term>
    20c9:	4c 89 e0             	mov    %r12,%rax
    20cc:	5b                   	pop    %rbx
    20cd:	5d                   	pop    %rbp
    20ce:	41 5c                	pop    %r12
    20d0:	c3                   	retq   

00000000000020d1 <notify_server>:
    20d1:	f3 0f 1e fa          	endbr64 
    20d5:	55                   	push   %rbp
    20d6:	53                   	push   %rbx
    20d7:	4c 8d 9c 24 00 c0 ff 	lea    -0x4000(%rsp),%r11
    20de:	ff 
    20df:	48 81 ec 00 10 00 00 	sub    $0x1000,%rsp
    20e6:	48 83 0c 24 00       	orq    $0x0,(%rsp)
    20eb:	4c 39 dc             	cmp    %r11,%rsp
    20ee:	75 ef                	jne    20df <notify_server+0xe>
    20f0:	48 83 ec 18          	sub    $0x18,%rsp
    20f4:	64 48 8b 04 25 28 00 	mov    %fs:0x28,%rax
    20fb:	00 00 
    20fd:	48 89 84 24 08 40 00 	mov    %rax,0x4008(%rsp)
    2104:	00 
    2105:	31 c0                	xor    %eax,%eax
    2107:	83 3d da 52 00 00 00 	cmpl   $0x0,0x52da(%rip)        # 73e8 <is_checker>
    210e:	0f 85 26 01 00 00    	jne    223a <notify_server+0x169>
    2114:	89 fb                	mov    %edi,%ebx
    2116:	81 3d e4 5e 00 00 9c 	cmpl   $0x1f9c,0x5ee4(%rip)        # 8004 <gets_cnt>
    211d:	1f 00 00 
    2120:	7f 18                	jg     213a <notify_server+0x69>
    2122:	0f be 05 df 5e 00 00 	movsbl 0x5edf(%rip),%eax        # 8008 <target_prefix>
    2129:	83 3d 38 52 00 00 00 	cmpl   $0x0,0x5238(%rip)        # 7368 <notify>
    2130:	74 23                	je     2155 <notify_server+0x84>
    2132:	8b 15 a8 52 00 00    	mov    0x52a8(%rip),%edx        # 73e0 <authkey>
    2138:	eb 20                	jmp    215a <notify_server+0x89>
    213a:	48 8d 35 b7 23 00 00 	lea    0x23b7(%rip),%rsi        # 44f8 <_IO_stdin_used+0x4f8>
    2141:	bf 01 00 00 00       	mov    $0x1,%edi
    2146:	e8 65 f2 ff ff       	callq  13b0 <__printf_chk@plt>
    214b:	bf 01 00 00 00       	mov    $0x1,%edi
    2150:	e8 ab f2 ff ff       	callq  1400 <exit@plt>
    2155:	ba ff ff ff ff       	mov    $0xffffffff,%edx
    215a:	85 db                	test   %ebx,%ebx
    215c:	0f 84 98 00 00 00    	je     21fa <notify_server+0x129>
    2162:	48 8d 2d 75 22 00 00 	lea    0x2275(%rip),%rbp        # 43de <_IO_stdin_used+0x3de>
    2169:	48 89 e7             	mov    %rsp,%rdi
    216c:	48 8d 0d 8d 52 00 00 	lea    0x528d(%rip),%rcx        # 7400 <gets_buf>
    2173:	51                   	push   %rcx
    2174:	56                   	push   %rsi
    2175:	50                   	push   %rax
    2176:	52                   	push   %rdx
    2177:	49 89 e9             	mov    %rbp,%r9
    217a:	44 8b 05 8f 4e 00 00 	mov    0x4e8f(%rip),%r8d        # 7010 <target_id>
    2181:	48 8d 0d 5b 22 00 00 	lea    0x225b(%rip),%rcx        # 43e3 <_IO_stdin_used+0x3e3>
    2188:	ba 00 20 00 00       	mov    $0x2000,%edx
    218d:	be 01 00 00 00       	mov    $0x1,%esi
    2192:	b8 00 00 00 00       	mov    $0x0,%eax
    2197:	e8 a4 f2 ff ff       	callq  1440 <__sprintf_chk@plt>
    219c:	48 83 c4 20          	add    $0x20,%rsp
    21a0:	83 3d c1 51 00 00 00 	cmpl   $0x0,0x51c1(%rip)        # 7368 <notify>
    21a7:	0f 84 ae 00 00 00    	je     225b <notify_server+0x18a>
    21ad:	85 db                	test   %ebx,%ebx
    21af:	74 7d                	je     222e <notify_server+0x15d>
    21b1:	48 89 e1             	mov    %rsp,%rcx
    21b4:	4c 8d 8c 24 00 20 00 	lea    0x2000(%rsp),%r9
    21bb:	00 
    21bc:	41 b8 00 00 00 00    	mov    $0x0,%r8d
    21c2:	48 8b 15 5f 4e 00 00 	mov    0x4e5f(%rip),%rdx        # 7028 <lab>
    21c9:	48 8b 35 60 4e 00 00 	mov    0x4e60(%rip),%rsi        # 7030 <course>
    21d0:	48 8b 3d 49 4e 00 00 	mov    0x4e49(%rip),%rdi        # 7020 <user_id>
    21d7:	e8 d9 11 00 00       	callq  33b5 <driver_post>
    21dc:	85 c0                	test   %eax,%eax
    21de:	78 26                	js     2206 <notify_server+0x135>
    21e0:	48 8d 3d 41 23 00 00 	lea    0x2341(%rip),%rdi        # 4528 <_IO_stdin_used+0x528>
    21e7:	e8 b4 f0 ff ff       	callq  12a0 <puts@plt>
    21ec:	48 8d 3d 18 22 00 00 	lea    0x2218(%rip),%rdi        # 440b <_IO_stdin_used+0x40b>
    21f3:	e8 a8 f0 ff ff       	callq  12a0 <puts@plt>
    21f8:	eb 40                	jmp    223a <notify_server+0x169>
    21fa:	48 8d 2d d8 21 00 00 	lea    0x21d8(%rip),%rbp        # 43d9 <_IO_stdin_used+0x3d9>
    2201:	e9 63 ff ff ff       	jmpq   2169 <notify_server+0x98>
    2206:	48 8d 94 24 00 20 00 	lea    0x2000(%rsp),%rdx
    220d:	00 
    220e:	48 8d 35 ea 21 00 00 	lea    0x21ea(%rip),%rsi        # 43ff <_IO_stdin_used+0x3ff>
    2215:	bf 01 00 00 00       	mov    $0x1,%edi
    221a:	b8 00 00 00 00       	mov    $0x0,%eax
    221f:	e8 8c f1 ff ff       	callq  13b0 <__printf_chk@plt>
    2224:	bf 01 00 00 00       	mov    $0x1,%edi
    2229:	e8 d2 f1 ff ff       	callq  1400 <exit@plt>
    222e:	48 8d 3d e0 21 00 00 	lea    0x21e0(%rip),%rdi        # 4415 <_IO_stdin_used+0x415>
    2235:	e8 66 f0 ff ff       	callq  12a0 <puts@plt>
    223a:	48 8b 84 24 08 40 00 	mov    0x4008(%rsp),%rax
    2241:	00 
    2242:	64 48 33 04 25 28 00 	xor    %fs:0x28,%rax
    2249:	00 00 
    224b:	0f 85 98 00 00 00    	jne    22e9 <notify_server+0x218>
    2251:	48 81 c4 18 40 00 00 	add    $0x4018,%rsp
    2258:	5b                   	pop    %rbx
    2259:	5d                   	pop    %rbp
    225a:	c3                   	retq   
    225b:	48 89 ea             	mov    %rbp,%rdx
    225e:	48 8d 35 fb 22 00 00 	lea    0x22fb(%rip),%rsi        # 4560 <_IO_stdin_used+0x560>
    2265:	bf 01 00 00 00       	mov    $0x1,%edi
    226a:	b8 00 00 00 00       	mov    $0x0,%eax
    226f:	e8 3c f1 ff ff       	callq  13b0 <__printf_chk@plt>
    2274:	48 8b 15 a5 4d 00 00 	mov    0x4da5(%rip),%rdx        # 7020 <user_id>
    227b:	48 8d 35 9a 21 00 00 	lea    0x219a(%rip),%rsi        # 441c <_IO_stdin_used+0x41c>
    2282:	bf 01 00 00 00       	mov    $0x1,%edi
    2287:	b8 00 00 00 00       	mov    $0x0,%eax
    228c:	e8 1f f1 ff ff       	callq  13b0 <__printf_chk@plt>
    2291:	48 8b 15 98 4d 00 00 	mov    0x4d98(%rip),%rdx        # 7030 <course>
    2298:	48 8d 35 8a 21 00 00 	lea    0x218a(%rip),%rsi        # 4429 <_IO_stdin_used+0x429>
    229f:	bf 01 00 00 00       	mov    $0x1,%edi
    22a4:	b8 00 00 00 00       	mov    $0x0,%eax
    22a9:	e8 02 f1 ff ff       	callq  13b0 <__printf_chk@plt>
    22ae:	48 8b 15 73 4d 00 00 	mov    0x4d73(%rip),%rdx        # 7028 <lab>
    22b5:	48 8d 35 79 21 00 00 	lea    0x2179(%rip),%rsi        # 4435 <_IO_stdin_used+0x435>
    22bc:	bf 01 00 00 00       	mov    $0x1,%edi
    22c1:	b8 00 00 00 00       	mov    $0x0,%eax
    22c6:	e8 e5 f0 ff ff       	callq  13b0 <__printf_chk@plt>
    22cb:	48 89 e2             	mov    %rsp,%rdx
    22ce:	48 8d 35 69 21 00 00 	lea    0x2169(%rip),%rsi        # 443e <_IO_stdin_used+0x43e>
    22d5:	bf 01 00 00 00       	mov    $0x1,%edi
    22da:	b8 00 00 00 00       	mov    $0x0,%eax
    22df:	e8 cc f0 ff ff       	callq  13b0 <__printf_chk@plt>
    22e4:	e9 51 ff ff ff       	jmpq   223a <notify_server+0x169>
    22e9:	e8 d2 ef ff ff       	callq  12c0 <__stack_chk_fail@plt>

00000000000022ee <validate>:
    22ee:	f3 0f 1e fa          	endbr64 
    22f2:	53                   	push   %rbx
    22f3:	89 fb                	mov    %edi,%ebx
    22f5:	83 3d ec 50 00 00 00 	cmpl   $0x0,0x50ec(%rip)        # 73e8 <is_checker>
    22fc:	74 72                	je     2370 <validate+0x82>
    22fe:	39 3d d8 50 00 00    	cmp    %edi,0x50d8(%rip)        # 73dc <vlevel>
    2304:	75 32                	jne    2338 <validate+0x4a>
    2306:	8b 15 cc 50 00 00    	mov    0x50cc(%rip),%edx        # 73d8 <check_level>
    230c:	39 fa                	cmp    %edi,%edx
    230e:	75 3e                	jne    234e <validate+0x60>
    2310:	0f be 15 f1 5c 00 00 	movsbl 0x5cf1(%rip),%edx        # 8008 <target_prefix>
    2317:	4c 8d 05 e2 50 00 00 	lea    0x50e2(%rip),%r8        # 7400 <gets_buf>
    231e:	89 f9                	mov    %edi,%ecx
    2320:	48 8d 35 41 21 00 00 	lea    0x2141(%rip),%rsi        # 4468 <_IO_stdin_used+0x468>
    2327:	bf 01 00 00 00       	mov    $0x1,%edi
    232c:	b8 00 00 00 00       	mov    $0x0,%eax
    2331:	e8 7a f0 ff ff       	callq  13b0 <__printf_chk@plt>
    2336:	5b                   	pop    %rbx
    2337:	c3                   	retq   
    2338:	48 8d 3d 0b 21 00 00 	lea    0x210b(%rip),%rdi        # 444a <_IO_stdin_used+0x44a>
    233f:	e8 5c ef ff ff       	callq  12a0 <puts@plt>
    2344:	b8 00 00 00 00       	mov    $0x0,%eax
    2349:	e8 ef fc ff ff       	callq  203d <check_fail>
    234e:	89 f9                	mov    %edi,%ecx
    2350:	48 8d 35 31 22 00 00 	lea    0x2231(%rip),%rsi        # 4588 <_IO_stdin_used+0x588>
    2357:	bf 01 00 00 00       	mov    $0x1,%edi
    235c:	b8 00 00 00 00       	mov    $0x0,%eax
    2361:	e8 4a f0 ff ff       	callq  13b0 <__printf_chk@plt>
    2366:	b8 00 00 00 00       	mov    $0x0,%eax
    236b:	e8 cd fc ff ff       	callq  203d <check_fail>
    2370:	39 3d 66 50 00 00    	cmp    %edi,0x5066(%rip)        # 73dc <vlevel>
    2376:	74 1a                	je     2392 <validate+0xa4>
    2378:	48 8d 3d cb 20 00 00 	lea    0x20cb(%rip),%rdi        # 444a <_IO_stdin_used+0x44a>
    237f:	e8 1c ef ff ff       	callq  12a0 <puts@plt>
    2384:	89 de                	mov    %ebx,%esi
    2386:	bf 00 00 00 00       	mov    $0x0,%edi
    238b:	e8 41 fd ff ff       	callq  20d1 <notify_server>
    2390:	eb a4                	jmp    2336 <validate+0x48>
    2392:	0f be 0d 6f 5c 00 00 	movsbl 0x5c6f(%rip),%ecx        # 8008 <target_prefix>
    2399:	89 fa                	mov    %edi,%edx
    239b:	48 8d 35 0e 22 00 00 	lea    0x220e(%rip),%rsi        # 45b0 <_IO_stdin_used+0x5b0>
    23a2:	bf 01 00 00 00       	mov    $0x1,%edi
    23a7:	b8 00 00 00 00       	mov    $0x0,%eax
    23ac:	e8 ff ef ff ff       	callq  13b0 <__printf_chk@plt>
    23b1:	89 de                	mov    %ebx,%esi
    23b3:	bf 01 00 00 00       	mov    $0x1,%edi
    23b8:	e8 14 fd ff ff       	callq  20d1 <notify_server>
    23bd:	e9 74 ff ff ff       	jmpq   2336 <validate+0x48>

00000000000023c2 <fail>:
    23c2:	f3 0f 1e fa          	endbr64 
    23c6:	48 83 ec 08          	sub    $0x8,%rsp
    23ca:	83 3d 17 50 00 00 00 	cmpl   $0x0,0x5017(%rip)        # 73e8 <is_checker>
    23d1:	75 11                	jne    23e4 <fail+0x22>
    23d3:	89 fe                	mov    %edi,%esi
    23d5:	bf 00 00 00 00       	mov    $0x0,%edi
    23da:	e8 f2 fc ff ff       	callq  20d1 <notify_server>
    23df:	48 83 c4 08          	add    $0x8,%rsp
    23e3:	c3                   	retq   
    23e4:	b8 00 00 00 00       	mov    $0x0,%eax
    23e9:	e8 4f fc ff ff       	callq  203d <check_fail>

00000000000023ee <bushandler>:
    23ee:	f3 0f 1e fa          	endbr64 
    23f2:	50                   	push   %rax
    23f3:	58                   	pop    %rax
    23f4:	48 83 ec 08          	sub    $0x8,%rsp
    23f8:	83 3d e9 4f 00 00 00 	cmpl   $0x0,0x4fe9(%rip)        # 73e8 <is_checker>
    23ff:	74 16                	je     2417 <bushandler+0x29>
    2401:	48 8d 3d 75 20 00 00 	lea    0x2075(%rip),%rdi        # 447d <_IO_stdin_used+0x47d>
    2408:	e8 93 ee ff ff       	callq  12a0 <puts@plt>
    240d:	b8 00 00 00 00       	mov    $0x0,%eax
    2412:	e8 26 fc ff ff       	callq  203d <check_fail>
    2417:	48 8d 3d ca 21 00 00 	lea    0x21ca(%rip),%rdi        # 45e8 <_IO_stdin_used+0x5e8>
    241e:	e8 7d ee ff ff       	callq  12a0 <puts@plt>
    2423:	48 8d 3d 5d 20 00 00 	lea    0x205d(%rip),%rdi        # 4487 <_IO_stdin_used+0x487>
    242a:	e8 71 ee ff ff       	callq  12a0 <puts@plt>
    242f:	be 00 00 00 00       	mov    $0x0,%esi
    2434:	bf 00 00 00 00       	mov    $0x0,%edi
    2439:	e8 93 fc ff ff       	callq  20d1 <notify_server>
    243e:	bf 01 00 00 00       	mov    $0x1,%edi
    2443:	e8 b8 ef ff ff       	callq  1400 <exit@plt>

0000000000002448 <seghandler>:
    2448:	f3 0f 1e fa          	endbr64 
    244c:	50                   	push   %rax
    244d:	58                   	pop    %rax
    244e:	48 83 ec 08          	sub    $0x8,%rsp
    2452:	83 3d 8f 4f 00 00 00 	cmpl   $0x0,0x4f8f(%rip)        # 73e8 <is_checker>
    2459:	74 16                	je     2471 <seghandler+0x29>
    245b:	48 8d 3d 3b 20 00 00 	lea    0x203b(%rip),%rdi        # 449d <_IO_stdin_used+0x49d>
    2462:	e8 39 ee ff ff       	callq  12a0 <puts@plt>
    2467:	b8 00 00 00 00       	mov    $0x0,%eax
    246c:	e8 cc fb ff ff       	callq  203d <check_fail>
    2471:	48 8d 3d 90 21 00 00 	lea    0x2190(%rip),%rdi        # 4608 <_IO_stdin_used+0x608>
    2478:	e8 23 ee ff ff       	callq  12a0 <puts@plt>
    247d:	48 8d 3d 03 20 00 00 	lea    0x2003(%rip),%rdi        # 4487 <_IO_stdin_used+0x487>
    2484:	e8 17 ee ff ff       	callq  12a0 <puts@plt>
    2489:	be 00 00 00 00       	mov    $0x0,%esi
    248e:	bf 00 00 00 00       	mov    $0x0,%edi
    2493:	e8 39 fc ff ff       	callq  20d1 <notify_server>
    2498:	bf 01 00 00 00       	mov    $0x1,%edi
    249d:	e8 5e ef ff ff       	callq  1400 <exit@plt>

00000000000024a2 <illegalhandler>:
    24a2:	f3 0f 1e fa          	endbr64 
    24a6:	50                   	push   %rax
    24a7:	58                   	pop    %rax
    24a8:	48 83 ec 08          	sub    $0x8,%rsp
    24ac:	83 3d 35 4f 00 00 00 	cmpl   $0x0,0x4f35(%rip)        # 73e8 <is_checker>
    24b3:	74 16                	je     24cb <illegalhandler+0x29>
    24b5:	48 8d 3d f4 1f 00 00 	lea    0x1ff4(%rip),%rdi        # 44b0 <_IO_stdin_used+0x4b0>
    24bc:	e8 df ed ff ff       	callq  12a0 <puts@plt>
    24c1:	b8 00 00 00 00       	mov    $0x0,%eax
    24c6:	e8 72 fb ff ff       	callq  203d <check_fail>
    24cb:	48 8d 3d 5e 21 00 00 	lea    0x215e(%rip),%rdi        # 4630 <_IO_stdin_used+0x630>
    24d2:	e8 c9 ed ff ff       	callq  12a0 <puts@plt>
    24d7:	48 8d 3d a9 1f 00 00 	lea    0x1fa9(%rip),%rdi        # 4487 <_IO_stdin_used+0x487>
    24de:	e8 bd ed ff ff       	callq  12a0 <puts@plt>
    24e3:	be 00 00 00 00       	mov    $0x0,%esi
    24e8:	bf 00 00 00 00       	mov    $0x0,%edi
    24ed:	e8 df fb ff ff       	callq  20d1 <notify_server>
    24f2:	bf 01 00 00 00       	mov    $0x1,%edi
    24f7:	e8 04 ef ff ff       	callq  1400 <exit@plt>

00000000000024fc <sigalrmhandler>:
    24fc:	f3 0f 1e fa          	endbr64 
    2500:	50                   	push   %rax
    2501:	58                   	pop    %rax
    2502:	48 83 ec 08          	sub    $0x8,%rsp
    2506:	83 3d db 4e 00 00 00 	cmpl   $0x0,0x4edb(%rip)        # 73e8 <is_checker>
    250d:	74 16                	je     2525 <sigalrmhandler+0x29>
    250f:	48 8d 3d ae 1f 00 00 	lea    0x1fae(%rip),%rdi        # 44c4 <_IO_stdin_used+0x4c4>
    2516:	e8 85 ed ff ff       	callq  12a0 <puts@plt>
    251b:	b8 00 00 00 00       	mov    $0x0,%eax
    2520:	e8 18 fb ff ff       	callq  203d <check_fail>
    2525:	ba 05 00 00 00       	mov    $0x5,%edx
    252a:	48 8d 35 2f 21 00 00 	lea    0x212f(%rip),%rsi        # 4660 <_IO_stdin_used+0x660>
    2531:	bf 01 00 00 00       	mov    $0x1,%edi
    2536:	b8 00 00 00 00       	mov    $0x0,%eax
    253b:	e8 70 ee ff ff       	callq  13b0 <__printf_chk@plt>
    2540:	be 00 00 00 00       	mov    $0x0,%esi
    2545:	bf 00 00 00 00       	mov    $0x0,%edi
    254a:	e8 82 fb ff ff       	callq  20d1 <notify_server>
    254f:	bf 01 00 00 00       	mov    $0x1,%edi
    2554:	e8 a7 ee ff ff       	callq  1400 <exit@plt>

0000000000002559 <launch>:
    2559:	f3 0f 1e fa          	endbr64 
    255d:	55                   	push   %rbp
    255e:	48 89 e5             	mov    %rsp,%rbp
    2561:	48 83 ec 10          	sub    $0x10,%rsp
    2565:	48 89 fa             	mov    %rdi,%rdx
    2568:	64 48 8b 04 25 28 00 	mov    %fs:0x28,%rax
    256f:	00 00 
    2571:	48 89 45 f8          	mov    %rax,-0x8(%rbp)
    2575:	31 c0                	xor    %eax,%eax
    2577:	48 8d 47 17          	lea    0x17(%rdi),%rax
    257b:	48 89 c1             	mov    %rax,%rcx
    257e:	48 83 e1 f0          	and    $0xfffffffffffffff0,%rcx
    2582:	48 25 00 f0 ff ff    	and    $0xfffffffffffff000,%rax
    2588:	48 89 e6             	mov    %rsp,%rsi
    258b:	48 29 c6             	sub    %rax,%rsi
    258e:	48 89 f0             	mov    %rsi,%rax
    2591:	48 39 c4             	cmp    %rax,%rsp
    2594:	74 12                	je     25a8 <launch+0x4f>
    2596:	48 81 ec 00 10 00 00 	sub    $0x1000,%rsp
    259d:	48 83 8c 24 f8 0f 00 	orq    $0x0,0xff8(%rsp)
    25a4:	00 00 
    25a6:	eb e9                	jmp    2591 <launch+0x38>
    25a8:	48 89 c8             	mov    %rcx,%rax
    25ab:	25 ff 0f 00 00       	and    $0xfff,%eax
    25b0:	48 29 c4             	sub    %rax,%rsp
    25b3:	48 85 c0             	test   %rax,%rax
    25b6:	74 06                	je     25be <launch+0x65>
    25b8:	48 83 4c 04 f8 00    	orq    $0x0,-0x8(%rsp,%rax,1)
    25be:	48 8d 7c 24 0f       	lea    0xf(%rsp),%rdi
    25c3:	48 83 e7 f0          	and    $0xfffffffffffffff0,%rdi
    25c7:	be f4 00 00 00       	mov    $0xf4,%esi
    25cc:	e8 0f ed ff ff       	callq  12e0 <memset@plt>
    25d1:	48 8b 05 a8 4d 00 00 	mov    0x4da8(%rip),%rax        # 7380 <stdin@@GLIBC_2.2.5>
    25d8:	48 39 05 f1 4d 00 00 	cmp    %rax,0x4df1(%rip)        # 73d0 <infile>
    25df:	74 3a                	je     261b <launch+0xc2>
    25e1:	c7 05 f1 4d 00 00 00 	movl   $0x0,0x4df1(%rip)        # 73dc <vlevel>
    25e8:	00 00 00 
    25eb:	b8 00 00 00 00       	mov    $0x0,%eax
    25f0:	e8 aa f9 ff ff       	callq  1f9f <test>
    25f5:	83 3d ec 4d 00 00 00 	cmpl   $0x0,0x4dec(%rip)        # 73e8 <is_checker>
    25fc:	75 35                	jne    2633 <launch+0xda>
    25fe:	48 8d 3d df 1e 00 00 	lea    0x1edf(%rip),%rdi        # 44e4 <_IO_stdin_used+0x4e4>
    2605:	e8 96 ec ff ff       	callq  12a0 <puts@plt>
    260a:	48 8b 45 f8          	mov    -0x8(%rbp),%rax
    260e:	64 48 33 04 25 28 00 	xor    %fs:0x28,%rax
    2615:	00 00 
    2617:	75 30                	jne    2649 <launch+0xf0>
    2619:	c9                   	leaveq 
    261a:	c3                   	retq   
    261b:	48 8d 35 aa 1e 00 00 	lea    0x1eaa(%rip),%rsi        # 44cc <_IO_stdin_used+0x4cc>
    2622:	bf 01 00 00 00       	mov    $0x1,%edi
    2627:	b8 00 00 00 00       	mov    $0x0,%eax
    262c:	e8 7f ed ff ff       	callq  13b0 <__printf_chk@plt>
    2631:	eb ae                	jmp    25e1 <launch+0x88>
    2633:	48 8d 3d 9f 1e 00 00 	lea    0x1e9f(%rip),%rdi        # 44d9 <_IO_stdin_used+0x4d9>
    263a:	e8 61 ec ff ff       	callq  12a0 <puts@plt>
    263f:	b8 00 00 00 00       	mov    $0x0,%eax
    2644:	e8 f4 f9 ff ff       	callq  203d <check_fail>
    2649:	e8 72 ec ff ff       	callq  12c0 <__stack_chk_fail@plt>

000000000000264e <stable_launch>:
    264e:	f3 0f 1e fa          	endbr64 
    2652:	53                   	push   %rbx
    2653:	48 89 3d 6e 4d 00 00 	mov    %rdi,0x4d6e(%rip)        # 73c8 <global_offset>
    265a:	41 b9 00 00 00 00    	mov    $0x0,%r9d
    2660:	41 b8 00 00 00 00    	mov    $0x0,%r8d
    2666:	b9 32 01 00 00       	mov    $0x132,%ecx
    266b:	ba 07 00 00 00       	mov    $0x7,%edx
    2670:	be 00 00 10 00       	mov    $0x100000,%esi
    2675:	bf 00 60 58 55       	mov    $0x55586000,%edi
    267a:	e8 51 ec ff ff       	callq  12d0 <mmap@plt>
    267f:	48 89 c3             	mov    %rax,%rbx
    2682:	48 3d 00 60 58 55    	cmp    $0x55586000,%rax
    2688:	75 43                	jne    26cd <stable_launch+0x7f>
    268a:	48 8d 90 f8 ff 0f 00 	lea    0xffff8(%rax),%rdx
    2691:	48 89 15 78 59 00 00 	mov    %rdx,0x5978(%rip)        # 8010 <stack_top>
    2698:	48 89 e0             	mov    %rsp,%rax
    269b:	48 89 d4             	mov    %rdx,%rsp
    269e:	48 89 c2             	mov    %rax,%rdx
    26a1:	48 89 15 18 4d 00 00 	mov    %rdx,0x4d18(%rip)        # 73c0 <global_save_stack>
    26a8:	48 8b 3d 19 4d 00 00 	mov    0x4d19(%rip),%rdi        # 73c8 <global_offset>
    26af:	e8 a5 fe ff ff       	callq  2559 <launch>
    26b4:	48 8b 05 05 4d 00 00 	mov    0x4d05(%rip),%rax        # 73c0 <global_save_stack>
    26bb:	48 89 c4             	mov    %rax,%rsp
    26be:	be 00 00 10 00       	mov    $0x100000,%esi
    26c3:	48 89 df             	mov    %rbx,%rdi
    26c6:	e8 d5 ec ff ff       	callq  13a0 <munmap@plt>
    26cb:	5b                   	pop    %rbx
    26cc:	c3                   	retq   
    26cd:	be 00 00 10 00       	mov    $0x100000,%esi
    26d2:	48 89 c7             	mov    %rax,%rdi
    26d5:	e8 c6 ec ff ff       	callq  13a0 <munmap@plt>
    26da:	b9 00 60 58 55       	mov    $0x55586000,%ecx
    26df:	48 8d 15 b2 1f 00 00 	lea    0x1fb2(%rip),%rdx        # 4698 <_IO_stdin_used+0x698>
    26e6:	be 01 00 00 00       	mov    $0x1,%esi
    26eb:	48 8b 3d ae 4c 00 00 	mov    0x4cae(%rip),%rdi        # 73a0 <stderr@@GLIBC_2.2.5>
    26f2:	b8 00 00 00 00       	mov    $0x0,%eax
    26f7:	e8 24 ed ff ff       	callq  1420 <__fprintf_chk@plt>
    26fc:	bf 01 00 00 00       	mov    $0x1,%edi
    2701:	e8 fa ec ff ff       	callq  1400 <exit@plt>

0000000000002706 <rio_readinitb>:
    2706:	89 37                	mov    %esi,(%rdi)
    2708:	c7 47 04 00 00 00 00 	movl   $0x0,0x4(%rdi)
    270f:	48 8d 47 10          	lea    0x10(%rdi),%rax
    2713:	48 89 47 08          	mov    %rax,0x8(%rdi)
    2717:	c3                   	retq   

0000000000002718 <sigalrm_handler>:
    2718:	f3 0f 1e fa          	endbr64 
    271c:	50                   	push   %rax
    271d:	58                   	pop    %rax
    271e:	48 83 ec 08          	sub    $0x8,%rsp
    2722:	b9 00 00 00 00       	mov    $0x0,%ecx
    2727:	48 8d 15 a2 1f 00 00 	lea    0x1fa2(%rip),%rdx        # 46d0 <trans_char+0x10>
    272e:	be 01 00 00 00       	mov    $0x1,%esi
    2733:	48 8b 3d 66 4c 00 00 	mov    0x4c66(%rip),%rdi        # 73a0 <stderr@@GLIBC_2.2.5>
    273a:	b8 00 00 00 00       	mov    $0x0,%eax
    273f:	e8 dc ec ff ff       	callq  1420 <__fprintf_chk@plt>
    2744:	bf 01 00 00 00       	mov    $0x1,%edi
    2749:	e8 b2 ec ff ff       	callq  1400 <exit@plt>

000000000000274e <rio_writen>:
    274e:	41 55                	push   %r13
    2750:	41 54                	push   %r12
    2752:	55                   	push   %rbp
    2753:	53                   	push   %rbx
    2754:	48 83 ec 08          	sub    $0x8,%rsp
    2758:	41 89 fc             	mov    %edi,%r12d
    275b:	48 89 f5             	mov    %rsi,%rbp
    275e:	49 89 d5             	mov    %rdx,%r13
    2761:	48 89 d3             	mov    %rdx,%rbx
    2764:	eb 06                	jmp    276c <rio_writen+0x1e>
    2766:	48 29 c3             	sub    %rax,%rbx
    2769:	48 01 c5             	add    %rax,%rbp
    276c:	48 85 db             	test   %rbx,%rbx
    276f:	74 24                	je     2795 <rio_writen+0x47>
    2771:	48 89 da             	mov    %rbx,%rdx
    2774:	48 89 ee             	mov    %rbp,%rsi
    2777:	44 89 e7             	mov    %r12d,%edi
    277a:	e8 31 eb ff ff       	callq  12b0 <write@plt>
    277f:	48 85 c0             	test   %rax,%rax
    2782:	7f e2                	jg     2766 <rio_writen+0x18>
    2784:	e8 d7 ea ff ff       	callq  1260 <__errno_location@plt>
    2789:	83 38 04             	cmpl   $0x4,(%rax)
    278c:	75 15                	jne    27a3 <rio_writen+0x55>
    278e:	b8 00 00 00 00       	mov    $0x0,%eax
    2793:	eb d1                	jmp    2766 <rio_writen+0x18>
    2795:	4c 89 e8             	mov    %r13,%rax
    2798:	48 83 c4 08          	add    $0x8,%rsp
    279c:	5b                   	pop    %rbx
    279d:	5d                   	pop    %rbp
    279e:	41 5c                	pop    %r12
    27a0:	41 5d                	pop    %r13
    27a2:	c3                   	retq   
    27a3:	48 c7 c0 ff ff ff ff 	mov    $0xffffffffffffffff,%rax
    27aa:	eb ec                	jmp    2798 <rio_writen+0x4a>

00000000000027ac <rio_read>:
    27ac:	41 55                	push   %r13
    27ae:	41 54                	push   %r12
    27b0:	55                   	push   %rbp
    27b1:	53                   	push   %rbx
    27b2:	48 83 ec 08          	sub    $0x8,%rsp
    27b6:	48 89 fb             	mov    %rdi,%rbx
    27b9:	49 89 f5             	mov    %rsi,%r13
    27bc:	49 89 d4             	mov    %rdx,%r12
    27bf:	eb 17                	jmp    27d8 <rio_read+0x2c>
    27c1:	e8 9a ea ff ff       	callq  1260 <__errno_location@plt>
    27c6:	83 38 04             	cmpl   $0x4,(%rax)
    27c9:	74 0d                	je     27d8 <rio_read+0x2c>
    27cb:	48 c7 c0 ff ff ff ff 	mov    $0xffffffffffffffff,%rax
    27d2:	eb 54                	jmp    2828 <rio_read+0x7c>
    27d4:	48 89 6b 08          	mov    %rbp,0x8(%rbx)
    27d8:	8b 6b 04             	mov    0x4(%rbx),%ebp
    27db:	85 ed                	test   %ebp,%ebp
    27dd:	7f 23                	jg     2802 <rio_read+0x56>
    27df:	48 8d 6b 10          	lea    0x10(%rbx),%rbp
    27e3:	8b 3b                	mov    (%rbx),%edi
    27e5:	ba 00 20 00 00       	mov    $0x2000,%edx
    27ea:	48 89 ee             	mov    %rbp,%rsi
    27ed:	e8 1e eb ff ff       	callq  1310 <read@plt>
    27f2:	89 43 04             	mov    %eax,0x4(%rbx)
    27f5:	85 c0                	test   %eax,%eax
    27f7:	78 c8                	js     27c1 <rio_read+0x15>
    27f9:	75 d9                	jne    27d4 <rio_read+0x28>
    27fb:	b8 00 00 00 00       	mov    $0x0,%eax
    2800:	eb 26                	jmp    2828 <rio_read+0x7c>
    2802:	89 e8                	mov    %ebp,%eax
    2804:	4c 39 e0             	cmp    %r12,%rax
    2807:	72 03                	jb     280c <rio_read+0x60>
    2809:	44 89 e5             	mov    %r12d,%ebp
    280c:	4c 63 e5             	movslq %ebp,%r12
    280f:	48 8b 73 08          	mov    0x8(%rbx),%rsi
    2813:	4c 89 e2             	mov    %r12,%rdx
    2816:	4c 89 ef             	mov    %r13,%rdi
    2819:	e8 42 eb ff ff       	callq  1360 <memcpy@plt>
    281e:	4c 01 63 08          	add    %r12,0x8(%rbx)
    2822:	29 6b 04             	sub    %ebp,0x4(%rbx)
    2825:	4c 89 e0             	mov    %r12,%rax
    2828:	48 83 c4 08          	add    $0x8,%rsp
    282c:	5b                   	pop    %rbx
    282d:	5d                   	pop    %rbp
    282e:	41 5c                	pop    %r12
    2830:	41 5d                	pop    %r13
    2832:	c3                   	retq   

0000000000002833 <rio_readlineb>:
    2833:	41 55                	push   %r13
    2835:	41 54                	push   %r12
    2837:	55                   	push   %rbp
    2838:	53                   	push   %rbx
    2839:	48 83 ec 18          	sub    $0x18,%rsp
    283d:	49 89 fd             	mov    %rdi,%r13
    2840:	48 89 f5             	mov    %rsi,%rbp
    2843:	49 89 d4             	mov    %rdx,%r12
    2846:	64 48 8b 04 25 28 00 	mov    %fs:0x28,%rax
    284d:	00 00 
    284f:	48 89 44 24 08       	mov    %rax,0x8(%rsp)
    2854:	31 c0                	xor    %eax,%eax
    2856:	bb 01 00 00 00       	mov    $0x1,%ebx
    285b:	eb 18                	jmp    2875 <rio_readlineb+0x42>
    285d:	85 c0                	test   %eax,%eax
    285f:	75 65                	jne    28c6 <rio_readlineb+0x93>
    2861:	48 83 fb 01          	cmp    $0x1,%rbx
    2865:	75 3d                	jne    28a4 <rio_readlineb+0x71>
    2867:	b8 00 00 00 00       	mov    $0x0,%eax
    286c:	eb 3d                	jmp    28ab <rio_readlineb+0x78>
    286e:	48 83 c3 01          	add    $0x1,%rbx
    2872:	48 89 d5             	mov    %rdx,%rbp
    2875:	4c 39 e3             	cmp    %r12,%rbx
    2878:	73 2a                	jae    28a4 <rio_readlineb+0x71>
    287a:	48 8d 74 24 07       	lea    0x7(%rsp),%rsi
    287f:	ba 01 00 00 00       	mov    $0x1,%edx
    2884:	4c 89 ef             	mov    %r13,%rdi
    2887:	e8 20 ff ff ff       	callq  27ac <rio_read>
    288c:	83 f8 01             	cmp    $0x1,%eax
    288f:	75 cc                	jne    285d <rio_readlineb+0x2a>
    2891:	48 8d 55 01          	lea    0x1(%rbp),%rdx
    2895:	0f b6 44 24 07       	movzbl 0x7(%rsp),%eax
    289a:	88 45 00             	mov    %al,0x0(%rbp)
    289d:	3c 0a                	cmp    $0xa,%al
    289f:	75 cd                	jne    286e <rio_readlineb+0x3b>
    28a1:	48 89 d5             	mov    %rdx,%rbp
    28a4:	c6 45 00 00          	movb   $0x0,0x0(%rbp)
    28a8:	48 89 d8             	mov    %rbx,%rax
    28ab:	48 8b 4c 24 08       	mov    0x8(%rsp),%rcx
    28b0:	64 48 33 0c 25 28 00 	xor    %fs:0x28,%rcx
    28b7:	00 00 
    28b9:	75 14                	jne    28cf <rio_readlineb+0x9c>
    28bb:	48 83 c4 18          	add    $0x18,%rsp
    28bf:	5b                   	pop    %rbx
    28c0:	5d                   	pop    %rbp
    28c1:	41 5c                	pop    %r12
    28c3:	41 5d                	pop    %r13
    28c5:	c3                   	retq   
    28c6:	48 c7 c0 ff ff ff ff 	mov    $0xffffffffffffffff,%rax
    28cd:	eb dc                	jmp    28ab <rio_readlineb+0x78>
    28cf:	e8 ec e9 ff ff       	callq  12c0 <__stack_chk_fail@plt>

00000000000028d4 <urlencode>:
    28d4:	41 54                	push   %r12
    28d6:	55                   	push   %rbp
    28d7:	53                   	push   %rbx
    28d8:	48 83 ec 10          	sub    $0x10,%rsp
    28dc:	48 89 fb             	mov    %rdi,%rbx
    28df:	48 89 f5             	mov    %rsi,%rbp
    28e2:	64 48 8b 04 25 28 00 	mov    %fs:0x28,%rax
    28e9:	00 00 
    28eb:	48 89 44 24 08       	mov    %rax,0x8(%rsp)
    28f0:	31 c0                	xor    %eax,%eax
    28f2:	48 c7 c1 ff ff ff ff 	mov    $0xffffffffffffffff,%rcx
    28f9:	f2 ae                	repnz scas %es:(%rdi),%al
    28fb:	48 f7 d1             	not    %rcx
    28fe:	8d 41 ff             	lea    -0x1(%rcx),%eax
    2901:	eb 0f                	jmp    2912 <urlencode+0x3e>
    2903:	44 88 45 00          	mov    %r8b,0x0(%rbp)
    2907:	48 8d 6d 01          	lea    0x1(%rbp),%rbp
    290b:	48 83 c3 01          	add    $0x1,%rbx
    290f:	44 89 e0             	mov    %r12d,%eax
    2912:	44 8d 60 ff          	lea    -0x1(%rax),%r12d
    2916:	85 c0                	test   %eax,%eax
    2918:	0f 84 a8 00 00 00    	je     29c6 <urlencode+0xf2>
    291e:	44 0f b6 03          	movzbl (%rbx),%r8d
    2922:	41 80 f8 2a          	cmp    $0x2a,%r8b
    2926:	0f 94 c2             	sete   %dl
    2929:	41 80 f8 2d          	cmp    $0x2d,%r8b
    292d:	0f 94 c0             	sete   %al
    2930:	08 c2                	or     %al,%dl
    2932:	75 cf                	jne    2903 <urlencode+0x2f>
    2934:	41 80 f8 2e          	cmp    $0x2e,%r8b
    2938:	74 c9                	je     2903 <urlencode+0x2f>
    293a:	41 80 f8 5f          	cmp    $0x5f,%r8b
    293e:	74 c3                	je     2903 <urlencode+0x2f>
    2940:	41 8d 40 d0          	lea    -0x30(%r8),%eax
    2944:	3c 09                	cmp    $0x9,%al
    2946:	76 bb                	jbe    2903 <urlencode+0x2f>
    2948:	41 8d 40 bf          	lea    -0x41(%r8),%eax
    294c:	3c 19                	cmp    $0x19,%al
    294e:	76 b3                	jbe    2903 <urlencode+0x2f>
    2950:	41 8d 40 9f          	lea    -0x61(%r8),%eax
    2954:	3c 19                	cmp    $0x19,%al
    2956:	76 ab                	jbe    2903 <urlencode+0x2f>
    2958:	41 80 f8 20          	cmp    $0x20,%r8b
    295c:	74 56                	je     29b4 <urlencode+0xe0>
    295e:	41 8d 40 e0          	lea    -0x20(%r8),%eax
    2962:	3c 5f                	cmp    $0x5f,%al
    2964:	0f 96 c2             	setbe  %dl
    2967:	41 80 f8 09          	cmp    $0x9,%r8b
    296b:	0f 94 c0             	sete   %al
    296e:	08 c2                	or     %al,%dl
    2970:	74 4f                	je     29c1 <urlencode+0xed>
    2972:	48 89 e7             	mov    %rsp,%rdi
    2975:	45 0f b6 c0          	movzbl %r8b,%r8d
    2979:	48 8d 0d e5 1d 00 00 	lea    0x1de5(%rip),%rcx        # 4765 <trans_char+0xa5>
    2980:	ba 08 00 00 00       	mov    $0x8,%edx
    2985:	be 01 00 00 00       	mov    $0x1,%esi
    298a:	b8 00 00 00 00       	mov    $0x0,%eax
    298f:	e8 ac ea ff ff       	callq  1440 <__sprintf_chk@plt>
    2994:	0f b6 04 24          	movzbl (%rsp),%eax
    2998:	88 45 00             	mov    %al,0x0(%rbp)
    299b:	0f b6 44 24 01       	movzbl 0x1(%rsp),%eax
    29a0:	88 45 01             	mov    %al,0x1(%rbp)
    29a3:	0f b6 44 24 02       	movzbl 0x2(%rsp),%eax
    29a8:	88 45 02             	mov    %al,0x2(%rbp)
    29ab:	48 8d 6d 03          	lea    0x3(%rbp),%rbp
    29af:	e9 57 ff ff ff       	jmpq   290b <urlencode+0x37>
    29b4:	c6 45 00 2b          	movb   $0x2b,0x0(%rbp)
    29b8:	48 8d 6d 01          	lea    0x1(%rbp),%rbp
    29bc:	e9 4a ff ff ff       	jmpq   290b <urlencode+0x37>
    29c1:	b8 ff ff ff ff       	mov    $0xffffffff,%eax
    29c6:	48 8b 74 24 08       	mov    0x8(%rsp),%rsi
    29cb:	64 48 33 34 25 28 00 	xor    %fs:0x28,%rsi
    29d2:	00 00 
    29d4:	75 09                	jne    29df <urlencode+0x10b>
    29d6:	48 83 c4 10          	add    $0x10,%rsp
    29da:	5b                   	pop    %rbx
    29db:	5d                   	pop    %rbp
    29dc:	41 5c                	pop    %r12
    29de:	c3                   	retq   
    29df:	e8 dc e8 ff ff       	callq  12c0 <__stack_chk_fail@plt>

00000000000029e4 <submitr>:
    29e4:	f3 0f 1e fa          	endbr64 
    29e8:	41 57                	push   %r15
    29ea:	41 56                	push   %r14
    29ec:	41 55                	push   %r13
    29ee:	41 54                	push   %r12
    29f0:	55                   	push   %rbp
    29f1:	53                   	push   %rbx
    29f2:	4c 8d 9c 24 00 60 ff 	lea    -0xa000(%rsp),%r11
    29f9:	ff 
    29fa:	48 81 ec 00 10 00 00 	sub    $0x1000,%rsp
    2a01:	48 83 0c 24 00       	orq    $0x0,(%rsp)
    2a06:	4c 39 dc             	cmp    %r11,%rsp
    2a09:	75 ef                	jne    29fa <submitr+0x16>
    2a0b:	48 83 ec 68          	sub    $0x68,%rsp
    2a0f:	49 89 fc             	mov    %rdi,%r12
    2a12:	89 74 24 14          	mov    %esi,0x14(%rsp)
    2a16:	49 89 d6             	mov    %rdx,%r14
    2a19:	48 89 4c 24 08       	mov    %rcx,0x8(%rsp)
    2a1e:	4c 89 44 24 18       	mov    %r8,0x18(%rsp)
    2a23:	4d 89 cd             	mov    %r9,%r13
    2a26:	48 8b ac 24 a0 a0 00 	mov    0xa0a0(%rsp),%rbp
    2a2d:	00 
    2a2e:	64 48 8b 04 25 28 00 	mov    %fs:0x28,%rax
    2a35:	00 00 
    2a37:	48 89 84 24 58 a0 00 	mov    %rax,0xa058(%rsp)
    2a3e:	00 
    2a3f:	31 c0                	xor    %eax,%eax
    2a41:	c7 44 24 2c 00 00 00 	movl   $0x0,0x2c(%rsp)
    2a48:	00 
    2a49:	ba 00 00 00 00       	mov    $0x0,%edx
    2a4e:	be 01 00 00 00       	mov    $0x1,%esi
    2a53:	bf 02 00 00 00       	mov    $0x2,%edi
    2a58:	e8 f3 e9 ff ff       	callq  1450 <socket@plt>
    2a5d:	85 c0                	test   %eax,%eax
    2a5f:	0f 88 a0 02 00 00    	js     2d05 <submitr+0x321>
    2a65:	89 c3                	mov    %eax,%ebx
    2a67:	4c 89 e7             	mov    %r12,%rdi
    2a6a:	e8 c1 e8 ff ff       	callq  1330 <gethostbyname@plt>
    2a6f:	48 85 c0             	test   %rax,%rax
    2a72:	0f 84 d9 02 00 00    	je     2d51 <submitr+0x36d>
    2a78:	4c 8d 7c 24 30       	lea    0x30(%rsp),%r15
    2a7d:	48 c7 44 24 30 00 00 	movq   $0x0,0x30(%rsp)
    2a84:	00 00 
    2a86:	48 c7 44 24 38 00 00 	movq   $0x0,0x38(%rsp)
    2a8d:	00 00 
    2a8f:	66 c7 44 24 30 02 00 	movw   $0x2,0x30(%rsp)
    2a96:	48 63 50 14          	movslq 0x14(%rax),%rdx
    2a9a:	48 8b 40 18          	mov    0x18(%rax),%rax
    2a9e:	48 8b 30             	mov    (%rax),%rsi
    2aa1:	48 8d 7c 24 34       	lea    0x34(%rsp),%rdi
    2aa6:	b9 0c 00 00 00       	mov    $0xc,%ecx
    2aab:	e8 90 e8 ff ff       	callq  1340 <__memmove_chk@plt>
    2ab0:	0f b7 74 24 14       	movzwl 0x14(%rsp),%esi
    2ab5:	66 c1 c6 08          	rol    $0x8,%si
    2ab9:	66 89 74 24 32       	mov    %si,0x32(%rsp)
    2abe:	ba 10 00 00 00       	mov    $0x10,%edx
    2ac3:	4c 89 fe             	mov    %r15,%rsi
    2ac6:	89 df                	mov    %ebx,%edi
    2ac8:	e8 43 e9 ff ff       	callq  1410 <connect@plt>
    2acd:	85 c0                	test   %eax,%eax
    2acf:	0f 88 e4 02 00 00    	js     2db9 <submitr+0x3d5>
    2ad5:	49 c7 c0 ff ff ff ff 	mov    $0xffffffffffffffff,%r8
    2adc:	b8 00 00 00 00       	mov    $0x0,%eax
    2ae1:	4c 89 c1             	mov    %r8,%rcx
    2ae4:	4c 89 ef             	mov    %r13,%rdi
    2ae7:	f2 ae                	repnz scas %es:(%rdi),%al
    2ae9:	48 89 ca             	mov    %rcx,%rdx
    2aec:	48 f7 d2             	not    %rdx
    2aef:	4c 89 c1             	mov    %r8,%rcx
    2af2:	4c 89 f7             	mov    %r14,%rdi
    2af5:	f2 ae                	repnz scas %es:(%rdi),%al
    2af7:	48 f7 d1             	not    %rcx
    2afa:	48 89 ce             	mov    %rcx,%rsi
    2afd:	4c 89 c1             	mov    %r8,%rcx
    2b00:	48 8b 7c 24 08       	mov    0x8(%rsp),%rdi
    2b05:	f2 ae                	repnz scas %es:(%rdi),%al
    2b07:	48 f7 d1             	not    %rcx
    2b0a:	48 8d 74 0e fe       	lea    -0x2(%rsi,%rcx,1),%rsi
    2b0f:	4c 89 c1             	mov    %r8,%rcx
    2b12:	48 8b 7c 24 18       	mov    0x18(%rsp),%rdi
    2b17:	f2 ae                	repnz scas %es:(%rdi),%al
    2b19:	48 89 c8             	mov    %rcx,%rax
    2b1c:	48 f7 d0             	not    %rax
    2b1f:	48 8d 4c 06 ff       	lea    -0x1(%rsi,%rax,1),%rcx
    2b24:	48 8d 44 52 fd       	lea    -0x3(%rdx,%rdx,2),%rax
    2b29:	48 8d 84 01 80 00 00 	lea    0x80(%rcx,%rax,1),%rax
    2b30:	00 
    2b31:	48 3d 00 20 00 00    	cmp    $0x2000,%rax
    2b37:	0f 87 d6 02 00 00    	ja     2e13 <submitr+0x42f>
    2b3d:	48 8d b4 24 50 40 00 	lea    0x4050(%rsp),%rsi
    2b44:	00 
    2b45:	b9 00 04 00 00       	mov    $0x400,%ecx
    2b4a:	b8 00 00 00 00       	mov    $0x0,%eax
    2b4f:	48 89 f7             	mov    %rsi,%rdi
    2b52:	f3 48 ab             	rep stos %rax,%es:(%rdi)
    2b55:	4c 89 ef             	mov    %r13,%rdi
    2b58:	e8 77 fd ff ff       	callq  28d4 <urlencode>
    2b5d:	85 c0                	test   %eax,%eax
    2b5f:	0f 88 21 03 00 00    	js     2e86 <submitr+0x4a2>
    2b65:	4c 8d bc 24 50 20 00 	lea    0x2050(%rsp),%r15
    2b6c:	00 
    2b6d:	41 54                	push   %r12
    2b6f:	48 8d 84 24 58 40 00 	lea    0x4058(%rsp),%rax
    2b76:	00 
    2b77:	50                   	push   %rax
    2b78:	4d 89 f1             	mov    %r14,%r9
    2b7b:	4c 8b 44 24 18       	mov    0x18(%rsp),%r8
    2b80:	48 8d 0d 71 1b 00 00 	lea    0x1b71(%rip),%rcx        # 46f8 <trans_char+0x38>
    2b87:	ba 00 20 00 00       	mov    $0x2000,%edx
    2b8c:	be 01 00 00 00       	mov    $0x1,%esi
    2b91:	4c 89 ff             	mov    %r15,%rdi
    2b94:	b8 00 00 00 00       	mov    $0x0,%eax
    2b99:	e8 a2 e8 ff ff       	callq  1440 <__sprintf_chk@plt>
    2b9e:	48 c7 c1 ff ff ff ff 	mov    $0xffffffffffffffff,%rcx
    2ba5:	b8 00 00 00 00       	mov    $0x0,%eax
    2baa:	4c 89 ff             	mov    %r15,%rdi
    2bad:	f2 ae                	repnz scas %es:(%rdi),%al
    2baf:	48 f7 d1             	not    %rcx
    2bb2:	48 8d 51 ff          	lea    -0x1(%rcx),%rdx
    2bb6:	4c 89 fe             	mov    %r15,%rsi
    2bb9:	89 df                	mov    %ebx,%edi
    2bbb:	e8 8e fb ff ff       	callq  274e <rio_writen>
    2bc0:	48 83 c4 10          	add    $0x10,%rsp
    2bc4:	48 85 c0             	test   %rax,%rax
    2bc7:	0f 88 44 03 00 00    	js     2f11 <submitr+0x52d>
    2bcd:	4c 8d 64 24 40       	lea    0x40(%rsp),%r12
    2bd2:	89 de                	mov    %ebx,%esi
    2bd4:	4c 89 e7             	mov    %r12,%rdi
    2bd7:	e8 2a fb ff ff       	callq  2706 <rio_readinitb>
    2bdc:	48 8d b4 24 50 20 00 	lea    0x2050(%rsp),%rsi
    2be3:	00 
    2be4:	ba 00 20 00 00       	mov    $0x2000,%edx
    2be9:	4c 89 e7             	mov    %r12,%rdi
    2bec:	e8 42 fc ff ff       	callq  2833 <rio_readlineb>
    2bf1:	48 85 c0             	test   %rax,%rax
    2bf4:	0f 8e 86 03 00 00    	jle    2f80 <submitr+0x59c>
    2bfa:	48 8d 4c 24 2c       	lea    0x2c(%rsp),%rcx
    2bff:	48 8d 94 24 50 60 00 	lea    0x6050(%rsp),%rdx
    2c06:	00 
    2c07:	48 8d bc 24 50 20 00 	lea    0x2050(%rsp),%rdi
    2c0e:	00 
    2c0f:	4c 8d 84 24 50 80 00 	lea    0x8050(%rsp),%r8
    2c16:	00 
    2c17:	48 8d 35 4e 1b 00 00 	lea    0x1b4e(%rip),%rsi        # 476c <trans_char+0xac>
    2c1e:	b8 00 00 00 00       	mov    $0x0,%eax
    2c23:	e8 68 e7 ff ff       	callq  1390 <__isoc99_sscanf@plt>
    2c28:	48 8d b4 24 50 20 00 	lea    0x2050(%rsp),%rsi
    2c2f:	00 
    2c30:	b9 03 00 00 00       	mov    $0x3,%ecx
    2c35:	48 8d 3d 47 1b 00 00 	lea    0x1b47(%rip),%rdi        # 4783 <trans_char+0xc3>
    2c3c:	f3 a6                	repz cmpsb %es:(%rdi),%ds:(%rsi)
    2c3e:	0f 97 c0             	seta   %al
    2c41:	1c 00                	sbb    $0x0,%al
    2c43:	84 c0                	test   %al,%al
    2c45:	0f 84 b3 03 00 00    	je     2ffe <submitr+0x61a>
    2c4b:	48 8d b4 24 50 20 00 	lea    0x2050(%rsp),%rsi
    2c52:	00 
    2c53:	48 8d 7c 24 40       	lea    0x40(%rsp),%rdi
    2c58:	ba 00 20 00 00       	mov    $0x2000,%edx
    2c5d:	e8 d1 fb ff ff       	callq  2833 <rio_readlineb>
    2c62:	48 85 c0             	test   %rax,%rax
    2c65:	7f c1                	jg     2c28 <submitr+0x244>
    2c67:	48 b8 45 72 72 6f 72 	movabs $0x43203a726f727245,%rax
    2c6e:	3a 20 43 
    2c71:	48 ba 6c 69 65 6e 74 	movabs $0x6e7520746e65696c,%rdx
    2c78:	20 75 6e 
    2c7b:	48 89 45 00          	mov    %rax,0x0(%rbp)
    2c7f:	48 89 55 08          	mov    %rdx,0x8(%rbp)
    2c83:	48 b8 61 62 6c 65 20 	movabs $0x206f7420656c6261,%rax
    2c8a:	74 6f 20 
    2c8d:	48 ba 72 65 61 64 20 	movabs $0x6165682064616572,%rdx
    2c94:	68 65 61 
    2c97:	48 89 45 10          	mov    %rax,0x10(%rbp)
    2c9b:	48 89 55 18          	mov    %rdx,0x18(%rbp)
    2c9f:	48 b8 64 65 72 73 20 	movabs $0x6f72662073726564,%rax
    2ca6:	66 72 6f 
    2ca9:	48 ba 6d 20 74 68 65 	movabs $0x657220656874206d,%rdx
    2cb0:	20 72 65 
    2cb3:	48 89 45 20          	mov    %rax,0x20(%rbp)
    2cb7:	48 89 55 28          	mov    %rdx,0x28(%rbp)
    2cbb:	48 b8 73 75 6c 74 20 	movabs $0x72657320746c7573,%rax
    2cc2:	73 65 72 
    2cc5:	48 89 45 30          	mov    %rax,0x30(%rbp)
    2cc9:	c7 45 38 76 65 72 00 	movl   $0x726576,0x38(%rbp)
    2cd0:	89 df                	mov    %ebx,%edi
    2cd2:	e8 29 e6 ff ff       	callq  1300 <close@plt>
    2cd7:	b8 ff ff ff ff       	mov    $0xffffffff,%eax
    2cdc:	48 8b 9c 24 58 a0 00 	mov    0xa058(%rsp),%rbx
    2ce3:	00 
    2ce4:	64 48 33 1c 25 28 00 	xor    %fs:0x28,%rbx
    2ceb:	00 00 
    2ced:	0f 85 7e 04 00 00    	jne    3171 <submitr+0x78d>
    2cf3:	48 81 c4 68 a0 00 00 	add    $0xa068,%rsp
    2cfa:	5b                   	pop    %rbx
    2cfb:	5d                   	pop    %rbp
    2cfc:	41 5c                	pop    %r12
    2cfe:	41 5d                	pop    %r13
    2d00:	41 5e                	pop    %r14
    2d02:	41 5f                	pop    %r15
    2d04:	c3                   	retq   
    2d05:	48 b8 45 72 72 6f 72 	movabs $0x43203a726f727245,%rax
    2d0c:	3a 20 43 
    2d0f:	48 ba 6c 69 65 6e 74 	movabs $0x6e7520746e65696c,%rdx
    2d16:	20 75 6e 
    2d19:	48 89 45 00          	mov    %rax,0x0(%rbp)
    2d1d:	48 89 55 08          	mov    %rdx,0x8(%rbp)
    2d21:	48 b8 61 62 6c 65 20 	movabs $0x206f7420656c6261,%rax
    2d28:	74 6f 20 
    2d2b:	48 ba 63 72 65 61 74 	movabs $0x7320657461657263,%rdx
    2d32:	65 20 73 
    2d35:	48 89 45 10          	mov    %rax,0x10(%rbp)
    2d39:	48 89 55 18          	mov    %rdx,0x18(%rbp)
    2d3d:	c7 45 20 6f 63 6b 65 	movl   $0x656b636f,0x20(%rbp)
    2d44:	66 c7 45 24 74 00    	movw   $0x74,0x24(%rbp)
    2d4a:	b8 ff ff ff ff       	mov    $0xffffffff,%eax
    2d4f:	eb 8b                	jmp    2cdc <submitr+0x2f8>
    2d51:	48 b8 45 72 72 6f 72 	movabs $0x44203a726f727245,%rax
    2d58:	3a 20 44 
    2d5b:	48 ba 4e 53 20 69 73 	movabs $0x6e7520736920534e,%rdx
    2d62:	20 75 6e 
    2d65:	48 89 45 00          	mov    %rax,0x0(%rbp)
    2d69:	48 89 55 08          	mov    %rdx,0x8(%rbp)
    2d6d:	48 b8 61 62 6c 65 20 	movabs $0x206f7420656c6261,%rax
    2d74:	74 6f 20 
    2d77:	48 ba 72 65 73 6f 6c 	movabs $0x2065766c6f736572,%rdx
    2d7e:	76 65 20 
    2d81:	48 89 45 10          	mov    %rax,0x10(%rbp)
    2d85:	48 89 55 18          	mov    %rdx,0x18(%rbp)
    2d89:	48 b8 73 65 72 76 65 	movabs $0x6120726576726573,%rax
    2d90:	72 20 61 
    2d93:	48 89 45 20          	mov    %rax,0x20(%rbp)
    2d97:	c7 45 28 64 64 72 65 	movl   $0x65726464,0x28(%rbp)
    2d9e:	66 c7 45 2c 73 73    	movw   $0x7373,0x2c(%rbp)
    2da4:	c6 45 2e 00          	movb   $0x0,0x2e(%rbp)
    2da8:	89 df                	mov    %ebx,%edi
    2daa:	e8 51 e5 ff ff       	callq  1300 <close@plt>
    2daf:	b8 ff ff ff ff       	mov    $0xffffffff,%eax
    2db4:	e9 23 ff ff ff       	jmpq   2cdc <submitr+0x2f8>
    2db9:	48 b8 45 72 72 6f 72 	movabs $0x55203a726f727245,%rax
    2dc0:	3a 20 55 
    2dc3:	48 ba 6e 61 62 6c 65 	movabs $0x6f7420656c62616e,%rdx
    2dca:	20 74 6f 
    2dcd:	48 89 45 00          	mov    %rax,0x0(%rbp)
    2dd1:	48 89 55 08          	mov    %rdx,0x8(%rbp)
    2dd5:	48 b8 20 63 6f 6e 6e 	movabs $0x7463656e6e6f6320,%rax
    2ddc:	65 63 74 
    2ddf:	48 ba 20 74 6f 20 74 	movabs $0x20656874206f7420,%rdx
    2de6:	68 65 20 
    2de9:	48 89 45 10          	mov    %rax,0x10(%rbp)
    2ded:	48 89 55 18          	mov    %rdx,0x18(%rbp)
    2df1:	c7 45 20 73 65 72 76 	movl   $0x76726573,0x20(%rbp)
    2df8:	66 c7 45 24 65 72    	movw   $0x7265,0x24(%rbp)
    2dfe:	c6 45 26 00          	movb   $0x0,0x26(%rbp)
    2e02:	89 df                	mov    %ebx,%edi
    2e04:	e8 f7 e4 ff ff       	callq  1300 <close@plt>
    2e09:	b8 ff ff ff ff       	mov    $0xffffffff,%eax
    2e0e:	e9 c9 fe ff ff       	jmpq   2cdc <submitr+0x2f8>
    2e13:	48 b8 45 72 72 6f 72 	movabs $0x52203a726f727245,%rax
    2e1a:	3a 20 52 
    2e1d:	48 ba 65 73 75 6c 74 	movabs $0x747320746c757365,%rdx
    2e24:	20 73 74 
    2e27:	48 89 45 00          	mov    %rax,0x0(%rbp)
    2e2b:	48 89 55 08          	mov    %rdx,0x8(%rbp)
    2e2f:	48 b8 72 69 6e 67 20 	movabs $0x6f6f7420676e6972,%rax
    2e36:	74 6f 6f 
    2e39:	48 ba 20 6c 61 72 67 	movabs $0x202e656772616c20,%rdx
    2e40:	65 2e 20 
    2e43:	48 89 45 10          	mov    %rax,0x10(%rbp)
    2e47:	48 89 55 18          	mov    %rdx,0x18(%rbp)
    2e4b:	48 b8 49 6e 63 72 65 	movabs $0x6573616572636e49,%rax
    2e52:	61 73 65 
    2e55:	48 ba 20 53 55 42 4d 	movabs $0x5254494d42555320,%rdx
    2e5c:	49 54 52 
    2e5f:	48 89 45 20          	mov    %rax,0x20(%rbp)
    2e63:	48 89 55 28          	mov    %rdx,0x28(%rbp)
    2e67:	48 b8 5f 4d 41 58 42 	movabs $0x46554258414d5f,%rax
    2e6e:	55 46 00 
    2e71:	48 89 45 30          	mov    %rax,0x30(%rbp)
    2e75:	89 df                	mov    %ebx,%edi
    2e77:	e8 84 e4 ff ff       	callq  1300 <close@plt>
    2e7c:	b8 ff ff ff ff       	mov    $0xffffffff,%eax
    2e81:	e9 56 fe ff ff       	jmpq   2cdc <submitr+0x2f8>
    2e86:	48 b8 45 72 72 6f 72 	movabs $0x52203a726f727245,%rax
    2e8d:	3a 20 52 
    2e90:	48 ba 65 73 75 6c 74 	movabs $0x747320746c757365,%rdx
    2e97:	20 73 74 
    2e9a:	48 89 45 00          	mov    %rax,0x0(%rbp)
    2e9e:	48 89 55 08          	mov    %rdx,0x8(%rbp)
    2ea2:	48 b8 72 69 6e 67 20 	movabs $0x6e6f6320676e6972,%rax
    2ea9:	63 6f 6e 
    2eac:	48 ba 74 61 69 6e 73 	movabs $0x6e6120736e696174,%rdx
    2eb3:	20 61 6e 
    2eb6:	48 89 45 10          	mov    %rax,0x10(%rbp)
    2eba:	48 89 55 18          	mov    %rdx,0x18(%rbp)
    2ebe:	48 b8 20 69 6c 6c 65 	movabs $0x6c6167656c6c6920,%rax
    2ec5:	67 61 6c 
    2ec8:	48 ba 20 6f 72 20 75 	movabs $0x72706e7520726f20,%rdx
    2ecf:	6e 70 72 
    2ed2:	48 89 45 20          	mov    %rax,0x20(%rbp)
    2ed6:	48 89 55 28          	mov    %rdx,0x28(%rbp)
    2eda:	48 b8 69 6e 74 61 62 	movabs $0x20656c6261746e69,%rax
    2ee1:	6c 65 20 
    2ee4:	48 ba 63 68 61 72 61 	movabs $0x6574636172616863,%rdx
    2eeb:	63 74 65 
    2eee:	48 89 45 30          	mov    %rax,0x30(%rbp)
    2ef2:	48 89 55 38          	mov    %rdx,0x38(%rbp)
    2ef6:	66 c7 45 40 72 2e    	movw   $0x2e72,0x40(%rbp)
    2efc:	c6 45 42 00          	movb   $0x0,0x42(%rbp)
    2f00:	89 df                	mov    %ebx,%edi
    2f02:	e8 f9 e3 ff ff       	callq  1300 <close@plt>
    2f07:	b8 ff ff ff ff       	mov    $0xffffffff,%eax
    2f0c:	e9 cb fd ff ff       	jmpq   2cdc <submitr+0x2f8>
    2f11:	48 b8 45 72 72 6f 72 	movabs $0x43203a726f727245,%rax
    2f18:	3a 20 43 
    2f1b:	48 ba 6c 69 65 6e 74 	movabs $0x6e7520746e65696c,%rdx
    2f22:	20 75 6e 
    2f25:	48 89 45 00          	mov    %rax,0x0(%rbp)
    2f29:	48 89 55 08          	mov    %rdx,0x8(%rbp)
    2f2d:	48 b8 61 62 6c 65 20 	movabs $0x206f7420656c6261,%rax
    2f34:	74 6f 20 
    2f37:	48 ba 77 72 69 74 65 	movabs $0x6f74206574697277,%rdx
    2f3e:	20 74 6f 
    2f41:	48 89 45 10          	mov    %rax,0x10(%rbp)
    2f45:	48 89 55 18          	mov    %rdx,0x18(%rbp)
    2f49:	48 b8 20 74 68 65 20 	movabs $0x7365722065687420,%rax
    2f50:	72 65 73 
    2f53:	48 ba 75 6c 74 20 73 	movabs $0x7672657320746c75,%rdx
    2f5a:	65 72 76 
    2f5d:	48 89 45 20          	mov    %rax,0x20(%rbp)
    2f61:	48 89 55 28          	mov    %rdx,0x28(%rbp)
    2f65:	66 c7 45 30 65 72    	movw   $0x7265,0x30(%rbp)
    2f6b:	c6 45 32 00          	movb   $0x0,0x32(%rbp)
    2f6f:	89 df                	mov    %ebx,%edi
    2f71:	e8 8a e3 ff ff       	callq  1300 <close@plt>
    2f76:	b8 ff ff ff ff       	mov    $0xffffffff,%eax
    2f7b:	e9 5c fd ff ff       	jmpq   2cdc <submitr+0x2f8>
    2f80:	48 b8 45 72 72 6f 72 	movabs $0x43203a726f727245,%rax
    2f87:	3a 20 43 
    2f8a:	48 ba 6c 69 65 6e 74 	movabs $0x6e7520746e65696c,%rdx
    2f91:	20 75 6e 
    2f94:	48 89 45 00          	mov    %rax,0x0(%rbp)
    2f98:	48 89 55 08          	mov    %rdx,0x8(%rbp)
    2f9c:	48 b8 61 62 6c 65 20 	movabs $0x206f7420656c6261,%rax
    2fa3:	74 6f 20 
    2fa6:	48 ba 72 65 61 64 20 	movabs $0x7269662064616572,%rdx
    2fad:	66 69 72 
    2fb0:	48 89 45 10          	mov    %rax,0x10(%rbp)
    2fb4:	48 89 55 18          	mov    %rdx,0x18(%rbp)
    2fb8:	48 b8 73 74 20 68 65 	movabs $0x6564616568207473,%rax
    2fbf:	61 64 65 
    2fc2:	48 ba 72 20 66 72 6f 	movabs $0x72206d6f72662072,%rdx
    2fc9:	6d 20 72 
    2fcc:	48 89 45 20          	mov    %rax,0x20(%rbp)
    2fd0:	48 89 55 28          	mov    %rdx,0x28(%rbp)
    2fd4:	48 b8 65 73 75 6c 74 	movabs $0x657320746c757365,%rax
    2fdb:	20 73 65 
    2fde:	48 89 45 30          	mov    %rax,0x30(%rbp)
    2fe2:	c7 45 38 72 76 65 72 	movl   $0x72657672,0x38(%rbp)
    2fe9:	c6 45 3c 00          	movb   $0x0,0x3c(%rbp)
    2fed:	89 df                	mov    %ebx,%edi
    2fef:	e8 0c e3 ff ff       	callq  1300 <close@plt>
    2ff4:	b8 ff ff ff ff       	mov    $0xffffffff,%eax
    2ff9:	e9 de fc ff ff       	jmpq   2cdc <submitr+0x2f8>
    2ffe:	48 8d b4 24 50 20 00 	lea    0x2050(%rsp),%rsi
    3005:	00 
    3006:	48 8d 7c 24 40       	lea    0x40(%rsp),%rdi
    300b:	ba 00 20 00 00       	mov    $0x2000,%edx
    3010:	e8 1e f8 ff ff       	callq  2833 <rio_readlineb>
    3015:	48 85 c0             	test   %rax,%rax
    3018:	0f 8e 96 00 00 00    	jle    30b4 <submitr+0x6d0>
    301e:	44 8b 44 24 2c       	mov    0x2c(%rsp),%r8d
    3023:	41 81 f8 c8 00 00 00 	cmp    $0xc8,%r8d
    302a:	0f 85 08 01 00 00    	jne    3138 <submitr+0x754>
    3030:	48 8d b4 24 50 20 00 	lea    0x2050(%rsp),%rsi
    3037:	00 
    3038:	48 89 ef             	mov    %rbp,%rdi
    303b:	e8 50 e2 ff ff       	callq  1290 <strcpy@plt>
    3040:	89 df                	mov    %ebx,%edi
    3042:	e8 b9 e2 ff ff       	callq  1300 <close@plt>
    3047:	b9 04 00 00 00       	mov    $0x4,%ecx
    304c:	48 8d 3d 2a 17 00 00 	lea    0x172a(%rip),%rdi        # 477d <trans_char+0xbd>
    3053:	48 89 ee             	mov    %rbp,%rsi
    3056:	f3 a6                	repz cmpsb %es:(%rdi),%ds:(%rsi)
    3058:	0f 97 c0             	seta   %al
    305b:	1c 00                	sbb    $0x0,%al
    305d:	0f be c0             	movsbl %al,%eax
    3060:	85 c0                	test   %eax,%eax
    3062:	0f 84 74 fc ff ff    	je     2cdc <submitr+0x2f8>
    3068:	b9 05 00 00 00       	mov    $0x5,%ecx
    306d:	48 8d 3d 0d 17 00 00 	lea    0x170d(%rip),%rdi        # 4781 <trans_char+0xc1>
    3074:	48 89 ee             	mov    %rbp,%rsi
    3077:	f3 a6                	repz cmpsb %es:(%rdi),%ds:(%rsi)
    3079:	0f 97 c0             	seta   %al
    307c:	1c 00                	sbb    $0x0,%al
    307e:	0f be c0             	movsbl %al,%eax
    3081:	85 c0                	test   %eax,%eax
    3083:	0f 84 53 fc ff ff    	je     2cdc <submitr+0x2f8>
    3089:	b9 03 00 00 00       	mov    $0x3,%ecx
    308e:	48 8d 3d f1 16 00 00 	lea    0x16f1(%rip),%rdi        # 4786 <trans_char+0xc6>
    3095:	48 89 ee             	mov    %rbp,%rsi
    3098:	f3 a6                	repz cmpsb %es:(%rdi),%ds:(%rsi)
    309a:	0f 97 c0             	seta   %al
    309d:	1c 00                	sbb    $0x0,%al
    309f:	0f be c0             	movsbl %al,%eax
    30a2:	85 c0                	test   %eax,%eax
    30a4:	0f 84 32 fc ff ff    	je     2cdc <submitr+0x2f8>
    30aa:	b8 ff ff ff ff       	mov    $0xffffffff,%eax
    30af:	e9 28 fc ff ff       	jmpq   2cdc <submitr+0x2f8>
    30b4:	48 b8 45 72 72 6f 72 	movabs $0x43203a726f727245,%rax
    30bb:	3a 20 43 
    30be:	48 ba 6c 69 65 6e 74 	movabs $0x6e7520746e65696c,%rdx
    30c5:	20 75 6e 
    30c8:	48 89 45 00          	mov    %rax,0x0(%rbp)
    30cc:	48 89 55 08          	mov    %rdx,0x8(%rbp)
    30d0:	48 b8 61 62 6c 65 20 	movabs $0x206f7420656c6261,%rax
    30d7:	74 6f 20 
    30da:	48 ba 72 65 61 64 20 	movabs $0x6174732064616572,%rdx
    30e1:	73 74 61 
    30e4:	48 89 45 10          	mov    %rax,0x10(%rbp)
    30e8:	48 89 55 18          	mov    %rdx,0x18(%rbp)
    30ec:	48 b8 74 75 73 20 6d 	movabs $0x7373656d20737574,%rax
    30f3:	65 73 73 
    30f6:	48 ba 61 67 65 20 66 	movabs $0x6d6f726620656761,%rdx
    30fd:	72 6f 6d 
    3100:	48 89 45 20          	mov    %rax,0x20(%rbp)
    3104:	48 89 55 28          	mov    %rdx,0x28(%rbp)
    3108:	48 b8 20 72 65 73 75 	movabs $0x20746c7573657220,%rax
    310f:	6c 74 20 
    3112:	48 89 45 30          	mov    %rax,0x30(%rbp)
    3116:	c7 45 38 73 65 72 76 	movl   $0x76726573,0x38(%rbp)
    311d:	66 c7 45 3c 65 72    	movw   $0x7265,0x3c(%rbp)
    3123:	c6 45 3e 00          	movb   $0x0,0x3e(%rbp)
    3127:	89 df                	mov    %ebx,%edi
    3129:	e8 d2 e1 ff ff       	callq  1300 <close@plt>
    312e:	b8 ff ff ff ff       	mov    $0xffffffff,%eax
    3133:	e9 a4 fb ff ff       	jmpq   2cdc <submitr+0x2f8>
    3138:	4c 8d 8c 24 50 80 00 	lea    0x8050(%rsp),%r9
    313f:	00 
    3140:	48 8d 0d f1 15 00 00 	lea    0x15f1(%rip),%rcx        # 4738 <trans_char+0x78>
    3147:	48 c7 c2 ff ff ff ff 	mov    $0xffffffffffffffff,%rdx
    314e:	be 01 00 00 00       	mov    $0x1,%esi
    3153:	48 89 ef             	mov    %rbp,%rdi
    3156:	b8 00 00 00 00       	mov    $0x0,%eax
    315b:	e8 e0 e2 ff ff       	callq  1440 <__sprintf_chk@plt>
    3160:	89 df                	mov    %ebx,%edi
    3162:	e8 99 e1 ff ff       	callq  1300 <close@plt>
    3167:	b8 ff ff ff ff       	mov    $0xffffffff,%eax
    316c:	e9 6b fb ff ff       	jmpq   2cdc <submitr+0x2f8>
    3171:	e8 4a e1 ff ff       	callq  12c0 <__stack_chk_fail@plt>

0000000000003176 <init_timeout>:
    3176:	f3 0f 1e fa          	endbr64 
    317a:	85 ff                	test   %edi,%edi
    317c:	74 26                	je     31a4 <init_timeout+0x2e>
    317e:	53                   	push   %rbx
    317f:	89 fb                	mov    %edi,%ebx
    3181:	78 1a                	js     319d <init_timeout+0x27>
    3183:	48 8d 35 8e f5 ff ff 	lea    -0xa72(%rip),%rsi        # 2718 <sigalrm_handler>
    318a:	bf 0e 00 00 00       	mov    $0xe,%edi
    318f:	e8 8c e1 ff ff       	callq  1320 <signal@plt>
    3194:	89 df                	mov    %ebx,%edi
    3196:	e8 55 e1 ff ff       	callq  12f0 <alarm@plt>
    319b:	5b                   	pop    %rbx
    319c:	c3                   	retq   
    319d:	bb 00 00 00 00       	mov    $0x0,%ebx
    31a2:	eb df                	jmp    3183 <init_timeout+0xd>
    31a4:	c3                   	retq   

00000000000031a5 <init_driver>:
    31a5:	f3 0f 1e fa          	endbr64 
    31a9:	41 54                	push   %r12
    31ab:	55                   	push   %rbp
    31ac:	53                   	push   %rbx
    31ad:	48 83 ec 20          	sub    $0x20,%rsp
    31b1:	48 89 fd             	mov    %rdi,%rbp
    31b4:	64 48 8b 04 25 28 00 	mov    %fs:0x28,%rax
    31bb:	00 00 
    31bd:	48 89 44 24 18       	mov    %rax,0x18(%rsp)
    31c2:	31 c0                	xor    %eax,%eax
    31c4:	be 01 00 00 00       	mov    $0x1,%esi
    31c9:	bf 0d 00 00 00       	mov    $0xd,%edi
    31ce:	e8 4d e1 ff ff       	callq  1320 <signal@plt>
    31d3:	be 01 00 00 00       	mov    $0x1,%esi
    31d8:	bf 1d 00 00 00       	mov    $0x1d,%edi
    31dd:	e8 3e e1 ff ff       	callq  1320 <signal@plt>
    31e2:	be 01 00 00 00       	mov    $0x1,%esi
    31e7:	bf 1d 00 00 00       	mov    $0x1d,%edi
    31ec:	e8 2f e1 ff ff       	callq  1320 <signal@plt>
    31f1:	ba 00 00 00 00       	mov    $0x0,%edx
    31f6:	be 01 00 00 00       	mov    $0x1,%esi
    31fb:	bf 02 00 00 00       	mov    $0x2,%edi
    3200:	e8 4b e2 ff ff       	callq  1450 <socket@plt>
    3205:	85 c0                	test   %eax,%eax
    3207:	0f 88 9c 00 00 00    	js     32a9 <init_driver+0x104>
    320d:	89 c3                	mov    %eax,%ebx
    320f:	48 8d 3d 73 15 00 00 	lea    0x1573(%rip),%rdi        # 4789 <trans_char+0xc9>
    3216:	e8 15 e1 ff ff       	callq  1330 <gethostbyname@plt>
    321b:	48 85 c0             	test   %rax,%rax
    321e:	0f 84 d1 00 00 00    	je     32f5 <init_driver+0x150>
    3224:	49 89 e4             	mov    %rsp,%r12
    3227:	48 c7 04 24 00 00 00 	movq   $0x0,(%rsp)
    322e:	00 
    322f:	48 c7 44 24 08 00 00 	movq   $0x0,0x8(%rsp)
    3236:	00 00 
    3238:	66 c7 04 24 02 00    	movw   $0x2,(%rsp)
    323e:	48 63 50 14          	movslq 0x14(%rax),%rdx
    3242:	48 8b 40 18          	mov    0x18(%rax),%rax
    3246:	48 8b 30             	mov    (%rax),%rsi
    3249:	48 8d 7c 24 04       	lea    0x4(%rsp),%rdi
    324e:	b9 0c 00 00 00       	mov    $0xc,%ecx
    3253:	e8 e8 e0 ff ff       	callq  1340 <__memmove_chk@plt>
    3258:	66 c7 44 24 02 3c 9a 	movw   $0x9a3c,0x2(%rsp)
    325f:	ba 10 00 00 00       	mov    $0x10,%edx
    3264:	4c 89 e6             	mov    %r12,%rsi
    3267:	89 df                	mov    %ebx,%edi
    3269:	e8 a2 e1 ff ff       	callq  1410 <connect@plt>
    326e:	85 c0                	test   %eax,%eax
    3270:	0f 88 e7 00 00 00    	js     335d <init_driver+0x1b8>
    3276:	89 df                	mov    %ebx,%edi
    3278:	e8 83 e0 ff ff       	callq  1300 <close@plt>
    327d:	66 c7 45 00 4f 4b    	movw   $0x4b4f,0x0(%rbp)
    3283:	c6 45 02 00          	movb   $0x0,0x2(%rbp)
    3287:	b8 00 00 00 00       	mov    $0x0,%eax
    328c:	48 8b 4c 24 18       	mov    0x18(%rsp),%rcx
    3291:	64 48 33 0c 25 28 00 	xor    %fs:0x28,%rcx
    3298:	00 00 
    329a:	0f 85 10 01 00 00    	jne    33b0 <init_driver+0x20b>
    32a0:	48 83 c4 20          	add    $0x20,%rsp
    32a4:	5b                   	pop    %rbx
    32a5:	5d                   	pop    %rbp
    32a6:	41 5c                	pop    %r12
    32a8:	c3                   	retq   
    32a9:	48 b8 45 72 72 6f 72 	movabs $0x43203a726f727245,%rax
    32b0:	3a 20 43 
    32b3:	48 ba 6c 69 65 6e 74 	movabs $0x6e7520746e65696c,%rdx
    32ba:	20 75 6e 
    32bd:	48 89 45 00          	mov    %rax,0x0(%rbp)
    32c1:	48 89 55 08          	mov    %rdx,0x8(%rbp)
    32c5:	48 b8 61 62 6c 65 20 	movabs $0x206f7420656c6261,%rax
    32cc:	74 6f 20 
    32cf:	48 ba 63 72 65 61 74 	movabs $0x7320657461657263,%rdx
    32d6:	65 20 73 
    32d9:	48 89 45 10          	mov    %rax,0x10(%rbp)
    32dd:	48 89 55 18          	mov    %rdx,0x18(%rbp)
    32e1:	c7 45 20 6f 63 6b 65 	movl   $0x656b636f,0x20(%rbp)
    32e8:	66 c7 45 24 74 00    	movw   $0x74,0x24(%rbp)
    32ee:	b8 ff ff ff ff       	mov    $0xffffffff,%eax
    32f3:	eb 97                	jmp    328c <init_driver+0xe7>
    32f5:	48 b8 45 72 72 6f 72 	movabs $0x44203a726f727245,%rax
    32fc:	3a 20 44 
    32ff:	48 ba 4e 53 20 69 73 	movabs $0x6e7520736920534e,%rdx
    3306:	20 75 6e 
    3309:	48 89 45 00          	mov    %rax,0x0(%rbp)
    330d:	48 89 55 08          	mov    %rdx,0x8(%rbp)
    3311:	48 b8 61 62 6c 65 20 	movabs $0x206f7420656c6261,%rax
    3318:	74 6f 20 
    331b:	48 ba 72 65 73 6f 6c 	movabs $0x2065766c6f736572,%rdx
    3322:	76 65 20 
    3325:	48 89 45 10          	mov    %rax,0x10(%rbp)
    3329:	48 89 55 18          	mov    %rdx,0x18(%rbp)
    332d:	48 b8 73 65 72 76 65 	movabs $0x6120726576726573,%rax
    3334:	72 20 61 
    3337:	48 89 45 20          	mov    %rax,0x20(%rbp)
    333b:	c7 45 28 64 64 72 65 	movl   $0x65726464,0x28(%rbp)
    3342:	66 c7 45 2c 73 73    	movw   $0x7373,0x2c(%rbp)
    3348:	c6 45 2e 00          	movb   $0x0,0x2e(%rbp)
    334c:	89 df                	mov    %ebx,%edi
    334e:	e8 ad df ff ff       	callq  1300 <close@plt>
    3353:	b8 ff ff ff ff       	mov    $0xffffffff,%eax
    3358:	e9 2f ff ff ff       	jmpq   328c <init_driver+0xe7>
    335d:	48 b8 45 72 72 6f 72 	movabs $0x55203a726f727245,%rax
    3364:	3a 20 55 
    3367:	48 ba 6e 61 62 6c 65 	movabs $0x6f7420656c62616e,%rdx
    336e:	20 74 6f 
    3371:	48 89 45 00          	mov    %rax,0x0(%rbp)
    3375:	48 89 55 08          	mov    %rdx,0x8(%rbp)
    3379:	48 b8 20 63 6f 6e 6e 	movabs $0x7463656e6e6f6320,%rax
    3380:	65 63 74 
    3383:	48 ba 20 74 6f 20 73 	movabs $0x76726573206f7420,%rdx
    338a:	65 72 76 
    338d:	48 89 45 10          	mov    %rax,0x10(%rbp)
    3391:	48 89 55 18          	mov    %rdx,0x18(%rbp)
    3395:	66 c7 45 20 65 72    	movw   $0x7265,0x20(%rbp)
    339b:	c6 45 22 00          	movb   $0x0,0x22(%rbp)
    339f:	89 df                	mov    %ebx,%edi
    33a1:	e8 5a df ff ff       	callq  1300 <close@plt>
    33a6:	b8 ff ff ff ff       	mov    $0xffffffff,%eax
    33ab:	e9 dc fe ff ff       	jmpq   328c <init_driver+0xe7>
    33b0:	e8 0b df ff ff       	callq  12c0 <__stack_chk_fail@plt>

00000000000033b5 <driver_post>:
    33b5:	f3 0f 1e fa          	endbr64 
    33b9:	53                   	push   %rbx
    33ba:	4c 89 cb             	mov    %r9,%rbx
    33bd:	45 85 c0             	test   %r8d,%r8d
    33c0:	75 18                	jne    33da <driver_post+0x25>
    33c2:	48 85 ff             	test   %rdi,%rdi
    33c5:	74 05                	je     33cc <driver_post+0x17>
    33c7:	80 3f 00             	cmpb   $0x0,(%rdi)
    33ca:	75 37                	jne    3403 <driver_post+0x4e>
    33cc:	66 c7 03 4f 4b       	movw   $0x4b4f,(%rbx)
    33d1:	c6 43 02 00          	movb   $0x0,0x2(%rbx)
    33d5:	44 89 c0             	mov    %r8d,%eax
    33d8:	5b                   	pop    %rbx
    33d9:	c3                   	retq   
    33da:	48 89 ca             	mov    %rcx,%rdx
    33dd:	48 8d 35 bd 13 00 00 	lea    0x13bd(%rip),%rsi        # 47a1 <trans_char+0xe1>
    33e4:	bf 01 00 00 00       	mov    $0x1,%edi
    33e9:	b8 00 00 00 00       	mov    $0x0,%eax
    33ee:	e8 bd df ff ff       	callq  13b0 <__printf_chk@plt>
    33f3:	66 c7 03 4f 4b       	movw   $0x4b4f,(%rbx)
    33f8:	c6 43 02 00          	movb   $0x0,0x2(%rbx)
    33fc:	b8 00 00 00 00       	mov    $0x0,%eax
    3401:	eb d5                	jmp    33d8 <driver_post+0x23>
    3403:	48 83 ec 08          	sub    $0x8,%rsp
    3407:	41 51                	push   %r9
    3409:	49 89 c9             	mov    %rcx,%r9
    340c:	49 89 d0             	mov    %rdx,%r8
    340f:	48 89 f9             	mov    %rdi,%rcx
    3412:	48 89 f2             	mov    %rsi,%rdx
    3415:	be 9a 3c 00 00       	mov    $0x3c9a,%esi
    341a:	48 8d 3d 68 13 00 00 	lea    0x1368(%rip),%rdi        # 4789 <trans_char+0xc9>
    3421:	e8 be f5 ff ff       	callq  29e4 <submitr>
    3426:	48 83 c4 10          	add    $0x10,%rsp
    342a:	eb ac                	jmp    33d8 <driver_post+0x23>

000000000000342c <check>:
    342c:	f3 0f 1e fa          	endbr64 
    3430:	89 f8                	mov    %edi,%eax
    3432:	c1 e8 1c             	shr    $0x1c,%eax
    3435:	74 1d                	je     3454 <check+0x28>
    3437:	b9 00 00 00 00       	mov    $0x0,%ecx
    343c:	83 f9 1f             	cmp    $0x1f,%ecx
    343f:	7f 0d                	jg     344e <check+0x22>
    3441:	89 f8                	mov    %edi,%eax
    3443:	d3 e8                	shr    %cl,%eax
    3445:	3c 0a                	cmp    $0xa,%al
    3447:	74 11                	je     345a <check+0x2e>
    3449:	83 c1 08             	add    $0x8,%ecx
    344c:	eb ee                	jmp    343c <check+0x10>
    344e:	b8 01 00 00 00       	mov    $0x1,%eax
    3453:	c3                   	retq   
    3454:	b8 00 00 00 00       	mov    $0x0,%eax
    3459:	c3                   	retq   
    345a:	b8 00 00 00 00       	mov    $0x0,%eax
    345f:	c3                   	retq   

0000000000003460 <gencookie>:
    3460:	f3 0f 1e fa          	endbr64 
    3464:	53                   	push   %rbx
    3465:	83 c7 01             	add    $0x1,%edi
    3468:	e8 03 de ff ff       	callq  1270 <srandom@plt>
    346d:	e8 0e df ff ff       	callq  1380 <random@plt>
    3472:	48 89 c7             	mov    %rax,%rdi
    3475:	89 c3                	mov    %eax,%ebx
    3477:	e8 b0 ff ff ff       	callq  342c <check>
    347c:	85 c0                	test   %eax,%eax
    347e:	74 ed                	je     346d <gencookie+0xd>
    3480:	89 d8                	mov    %ebx,%eax
    3482:	5b                   	pop    %rbx
    3483:	c3                   	retq   
    3484:	66 2e 0f 1f 84 00 00 	nopw   %cs:0x0(%rax,%rax,1)
    348b:	00 00 00 
    348e:	66 90                	xchg   %ax,%ax

0000000000003490 <__libc_csu_init>:
    3490:	f3 0f 1e fa          	endbr64 
    3494:	41 57                	push   %r15
    3496:	4c 8d 3d 1b 38 00 00 	lea    0x381b(%rip),%r15        # 6cb8 <__frame_dummy_init_array_entry>
    349d:	41 56                	push   %r14
    349f:	49 89 d6             	mov    %rdx,%r14
    34a2:	41 55                	push   %r13
    34a4:	49 89 f5             	mov    %rsi,%r13
    34a7:	41 54                	push   %r12
    34a9:	41 89 fc             	mov    %edi,%r12d
    34ac:	55                   	push   %rbp
    34ad:	48 8d 2d 0c 38 00 00 	lea    0x380c(%rip),%rbp        # 6cc0 <__do_global_dtors_aux_fini_array_entry>
    34b4:	53                   	push   %rbx
    34b5:	4c 29 fd             	sub    %r15,%rbp
    34b8:	48 83 ec 08          	sub    $0x8,%rsp
    34bc:	e8 3f db ff ff       	callq  1000 <_init>
    34c1:	48 c1 fd 03          	sar    $0x3,%rbp
    34c5:	74 1f                	je     34e6 <__libc_csu_init+0x56>
    34c7:	31 db                	xor    %ebx,%ebx
    34c9:	0f 1f 80 00 00 00 00 	nopl   0x0(%rax)
    34d0:	4c 89 f2             	mov    %r14,%rdx
    34d3:	4c 89 ee             	mov    %r13,%rsi
    34d6:	44 89 e7             	mov    %r12d,%edi
    34d9:	41 ff 14 df          	callq  *(%r15,%rbx,8)
    34dd:	48 83 c3 01          	add    $0x1,%rbx
    34e1:	48 39 dd             	cmp    %rbx,%rbp
    34e4:	75 ea                	jne    34d0 <__libc_csu_init+0x40>
    34e6:	48 83 c4 08          	add    $0x8,%rsp
    34ea:	5b                   	pop    %rbx
    34eb:	5d                   	pop    %rbp
    34ec:	41 5c                	pop    %r12
    34ee:	41 5d                	pop    %r13
    34f0:	41 5e                	pop    %r14
    34f2:	41 5f                	pop    %r15
    34f4:	c3                   	retq   
    34f5:	66 66 2e 0f 1f 84 00 	data16 nopw %cs:0x0(%rax,%rax,1)
    34fc:	00 00 00 00 

0000000000003500 <__libc_csu_fini>:
    3500:	f3 0f 1e fa          	endbr64 
    3504:	c3                   	retq   

Disassembly of section .fini:

0000000000003508 <_fini>:
    3508:	f3 0f 1e fa          	endbr64 
    350c:	48 83 ec 08          	sub    $0x8,%rsp
    3510:	48 83 c4 08          	add    $0x8,%rsp
    3514:	c3                   	retq   
